ARM GAS  C:\Users\Kiana\AppData\Local\Temp\cc18u8J1.s 			page 1


   1              		.cpu cortex-m4
   2              		.eabi_attribute 27, 1
   3              		.eabi_attribute 28, 1
   4              		.eabi_attribute 20, 1
   5              		.eabi_attribute 21, 1
   6              		.eabi_attribute 23, 3
   7              		.eabi_attribute 24, 1
   8              		.eabi_attribute 25, 1
   9              		.eabi_attribute 26, 1
  10              		.eabi_attribute 30, 1
  11              		.eabi_attribute 34, 1
  12              		.eabi_attribute 18, 4
  13              		.file	"NRF24L01.c"
  14              		.text
  15              	.Ltext0:
  16              		.cfi_sections	.debug_frame
  17              		.section	.text.SPIx_ReadWriteByte,"ax",%progbits
  18              		.align	1
  19              		.global	SPIx_ReadWriteByte
  20              		.arch armv7e-m
  21              		.syntax unified
  22              		.thumb
  23              		.thumb_func
  24              		.fpu fpv4-sp-d16
  26              	SPIx_ReadWriteByte:
  27              	.LVL0:
  28              	.LFB133:
  29              		.file 1 "Core/Src/NRF24L01.c"
   1:Core/Src/NRF24L01.c **** /* åŒ…å«å¤´æ–‡ä»¶ ----------------------------------------------------------------*/
   2:Core/Src/NRF24L01.c **** #include "NRF24L01.h"
   3:Core/Src/NRF24L01.c **** 
   4:Core/Src/NRF24L01.c **** /* ç§æœ‰ç±»å‹å®šä¹‰ --------------------------------------------------------------*/
   5:Core/Src/NRF24L01.c **** /* ç§æœ‰å®å®šä¹‰ ----------------------------------------------------------------*/              
   6:Core/Src/NRF24L01.c **** /* ç§æœ‰å˜é‡ ------------------------------------------------------------------*/
   7:Core/Src/NRF24L01.c **** 
   8:Core/Src/NRF24L01.c **** const uint8_t TX_ADDRESS[TX_ADR_WIDTH]={0xb0,0x43,0x10,0x10,0x01}; //å‘é€åœ°å€
   9:Core/Src/NRF24L01.c **** const uint8_t RX_ADDRESS[RX_ADR_WIDTH]={0xb0,0x43,0x10,0x10,0x01};
  10:Core/Src/NRF24L01.c **** 
  11:Core/Src/NRF24L01.c **** /* æ‰©å±•å˜é‡ ------------------------------------------------------------------*/
  12:Core/Src/NRF24L01.c **** /* ç§æœ‰å‡½æ•°åŸå½¢ --------------------------------------------------------------*/
  13:Core/Src/NRF24L01.c **** /* å‡½æ•°ä½“ --------------------------------------------------------------------*/
  14:Core/Src/NRF24L01.c **** 
  15:Core/Src/NRF24L01.c **** 
  16:Core/Src/NRF24L01.c **** /**
  17:Core/Src/NRF24L01.c ****   * å‡½æ•°åŠŸèƒ½: å¾€ä¸²è¡ŒFlashè¯»å–å†™å…¥ä¸€ä¸ªå­—èŠ‚æ•°æ®å¹¶æ¥æ”¶ä¸€ä¸ªå­—èŠ‚æ•°æ®
  18:Core/Src/NRF24L01.c ****   * è¾“å…¥å‚æ•°: byteï¼šå¾…å‘é€æ•°æ®
  19:Core/Src/NRF24L01.c ****   * è¿” å› å€¼: uint8_tï¼šæ¥æ”¶åˆ°çš„æ•°æ®
  20:Core/Src/NRF24L01.c ****   * è¯´    æ˜ï¼šæ— 
  21:Core/Src/NRF24L01.c ****   */
  22:Core/Src/NRF24L01.c **** uint8_t SPIx_ReadWriteByte(SPI_HandleTypeDef* hspi,uint8_t byte)
  23:Core/Src/NRF24L01.c **** {
  30              		.loc 1 23 1 view -0
  31              		.cfi_startproc
  32              		@ args = 0, pretend = 0, frame = 8
  33              		@ frame_needed = 0, uses_anonymous_args = 0
  34              		.loc 1 23 1 is_stmt 0 view .LVU1
  35 0000 00B5     		push	{lr}
ARM GAS  C:\Users\Kiana\AppData\Local\Temp\cc18u8J1.s 			page 2


  36              	.LCFI0:
  37              		.cfi_def_cfa_offset 4
  38              		.cfi_offset 14, -4
  39 0002 85B0     		sub	sp, sp, #20
  40              	.LCFI1:
  41              		.cfi_def_cfa_offset 24
  24:Core/Src/NRF24L01.c ****   uint8_t d_read,d_send=byte;
  42              		.loc 1 24 3 is_stmt 1 view .LVU2
  43              		.loc 1 24 18 is_stmt 0 view .LVU3
  44 0004 8DF80E10 		strb	r1, [sp, #14]
  25:Core/Src/NRF24L01.c ****   if(HAL_SPI_TransmitReceive(hspi,&d_send,&d_read,1,0xFF)!=HAL_OK)
  45              		.loc 1 25 3 is_stmt 1 view .LVU4
  46              		.loc 1 25 6 is_stmt 0 view .LVU5
  47 0008 FF23     		movs	r3, #255
  48 000a 0093     		str	r3, [sp]
  49 000c 0123     		movs	r3, #1
  50 000e 0DF10F02 		add	r2, sp, #15
  51 0012 0DF10E01 		add	r1, sp, #14
  52              	.LVL1:
  53              		.loc 1 25 6 view .LVU6
  54 0016 FFF7FEFF 		bl	HAL_SPI_TransmitReceive
  55              	.LVL2:
  56              		.loc 1 25 5 view .LVU7
  57 001a 10B1     		cbz	r0, .L2
  26:Core/Src/NRF24L01.c ****   {
  27:Core/Src/NRF24L01.c ****     d_read=0xFF;
  58              		.loc 1 27 5 is_stmt 1 view .LVU8
  59              		.loc 1 27 11 is_stmt 0 view .LVU9
  60 001c FF23     		movs	r3, #255
  61 001e 8DF80F30 		strb	r3, [sp, #15]
  62              	.L2:
  28:Core/Src/NRF24L01.c ****   }
  29:Core/Src/NRF24L01.c ****   return d_read; 
  63              		.loc 1 29 3 is_stmt 1 view .LVU10
  30:Core/Src/NRF24L01.c **** }
  64              		.loc 1 30 1 is_stmt 0 view .LVU11
  65 0022 9DF80F00 		ldrb	r0, [sp, #15]	@ zero_extendqisi2
  66 0026 05B0     		add	sp, sp, #20
  67              	.LCFI2:
  68              		.cfi_def_cfa_offset 4
  69              		@ sp needed
  70 0028 5DF804FB 		ldr	pc, [sp], #4
  71              		.cfi_endproc
  72              	.LFE133:
  74              		.section	.text.NRF24L01_Write_Reg,"ax",%progbits
  75              		.align	1
  76              		.global	NRF24L01_Write_Reg
  77              		.syntax unified
  78              		.thumb
  79              		.thumb_func
  80              		.fpu fpv4-sp-d16
  82              	NRF24L01_Write_Reg:
  83              	.LVL3:
  84              	.LFB135:
  31:Core/Src/NRF24L01.c **** 
  32:Core/Src/NRF24L01.c **** /**
  33:Core/Src/NRF24L01.c ****   * å‡½æ•°åŠŸèƒ½: æ£€æµ‹24L01æ˜¯å¦å­˜åœ¨
ARM GAS  C:\Users\Kiana\AppData\Local\Temp\cc18u8J1.s 			page 3


  34:Core/Src/NRF24L01.c ****   * è¾“å…¥å‚æ•°: æ— 
  35:Core/Src/NRF24L01.c ****   * è¿” å› å€¼: 0ï¼ŒæˆåŠŸ;1ï¼Œå¤±è´¥
  36:Core/Src/NRF24L01.c ****   * è¯´    æ˜ï¼šæ—           
  37:Core/Src/NRF24L01.c ****   */ 
  38:Core/Src/NRF24L01.c **** uint8_t NRF24L01_Check(void)
  39:Core/Src/NRF24L01.c **** {
  40:Core/Src/NRF24L01.c **** 	uint8_t buf[5]={0XA5,0XA5,0XA5,0XA5,0XA5};
  41:Core/Src/NRF24L01.c **** 	uint8_t i;
  42:Core/Src/NRF24L01.c ****   
  43:Core/Src/NRF24L01.c **** 	NRF24L01_Write_Buf(NRF_WRITE_REG+TX_ADDR,buf,5);//å†™å…¥5ä¸ªå­—èŠ‚çš„åœ°å€.	
  44:Core/Src/NRF24L01.c **** 	NRF24L01_Read_Buf(TX_ADDR,buf,5); //è¯»å‡ºå†™å…¥çš„åœ°å€  
  45:Core/Src/NRF24L01.c **** 	for(i=0;i<5;i++)if(buf[i]!=0XA5)break;	 							   
  46:Core/Src/NRF24L01.c **** 	if(i!=5)return 1;//æ£€æµ‹24L01é”™è¯¯	
  47:Core/Src/NRF24L01.c **** 	return 0;		 //æ£€æµ‹åˆ°24L01
  48:Core/Src/NRF24L01.c **** }	 	 
  49:Core/Src/NRF24L01.c **** 
  50:Core/Src/NRF24L01.c **** /**
  51:Core/Src/NRF24L01.c ****   * å‡½æ•°åŠŸèƒ½: SPIå†™å¯„å­˜å™¨
  52:Core/Src/NRF24L01.c ****   * è¾“å…¥å‚æ•°: æ— 
  53:Core/Src/NRF24L01.c ****   * è¿” å› å€¼: æ— 
  54:Core/Src/NRF24L01.c ****   * è¯´    æ˜ï¼šreg:æŒ‡å®šå¯„å­˜å™¨åœ°å€
  55:Core/Src/NRF24L01.c ****   *           
  56:Core/Src/NRF24L01.c ****   */ 
  57:Core/Src/NRF24L01.c **** uint8_t NRF24L01_Write_Reg(uint8_t reg,uint8_t value)
  58:Core/Src/NRF24L01.c **** {
  85              		.loc 1 58 1 is_stmt 1 view -0
  86              		.cfi_startproc
  87              		@ args = 0, pretend = 0, frame = 0
  88              		@ frame_needed = 0, uses_anonymous_args = 0
  89              		.loc 1 58 1 is_stmt 0 view .LVU13
  90 0000 F8B5     		push	{r3, r4, r5, r6, r7, lr}
  91              	.LCFI3:
  92              		.cfi_def_cfa_offset 24
  93              		.cfi_offset 3, -24
  94              		.cfi_offset 4, -20
  95              		.cfi_offset 5, -16
  96              		.cfi_offset 6, -12
  97              		.cfi_offset 7, -8
  98              		.cfi_offset 14, -4
  99 0002 0446     		mov	r4, r0
 100 0004 0D46     		mov	r5, r1
  59:Core/Src/NRF24L01.c **** 	uint8_t status;	
 101              		.loc 1 59 2 is_stmt 1 view .LVU14
  60:Core/Src/NRF24L01.c ****   NRF24L01_SPI_CS_ENABLE();                 //ä½¿èƒ½SPIä¼ è¾“
 102              		.loc 1 60 3 view .LVU15
 103 0006 0C4E     		ldr	r6, .L6
 104 0008 0022     		movs	r2, #0
 105 000a 4FF48051 		mov	r1, #4096
 106              	.LVL4:
 107              		.loc 1 60 3 is_stmt 0 view .LVU16
 108 000e 3046     		mov	r0, r6
 109              	.LVL5:
 110              		.loc 1 60 3 view .LVU17
 111 0010 FFF7FEFF 		bl	HAL_GPIO_WritePin
 112              	.LVL6:
  61:Core/Src/NRF24L01.c ****   status =SPIx_ReadWriteByte(&hspi_NRF24L01,reg);//å‘é€å¯„å­˜å™¨å· 
 113              		.loc 1 61 3 is_stmt 1 view .LVU18
ARM GAS  C:\Users\Kiana\AppData\Local\Temp\cc18u8J1.s 			page 4


 114              		.loc 1 61 11 is_stmt 0 view .LVU19
 115 0014 094F     		ldr	r7, .L6+4
 116 0016 2146     		mov	r1, r4
 117 0018 3846     		mov	r0, r7
 118 001a FFF7FEFF 		bl	SPIx_ReadWriteByte
 119              	.LVL7:
 120 001e 0446     		mov	r4, r0
 121              	.LVL8:
  62:Core/Src/NRF24L01.c ****   SPIx_ReadWriteByte(&hspi_NRF24L01,value);      //å†™å…¥å¯„å­˜å™¨çš„å€¼
 122              		.loc 1 62 3 is_stmt 1 view .LVU20
 123 0020 2946     		mov	r1, r5
 124 0022 3846     		mov	r0, r7
 125 0024 FFF7FEFF 		bl	SPIx_ReadWriteByte
 126              	.LVL9:
  63:Core/Src/NRF24L01.c ****   NRF24L01_SPI_CS_DISABLE();                 //ç¦æ­¢SPIä¼ è¾“	   
 127              		.loc 1 63 3 view .LVU21
 128 0028 0122     		movs	r2, #1
 129 002a 4FF48051 		mov	r1, #4096
 130 002e 3046     		mov	r0, r6
 131 0030 FFF7FEFF 		bl	HAL_GPIO_WritePin
 132              	.LVL10:
  64:Core/Src/NRF24L01.c ****   return(status);       			//è¿”å›çŠ¶æ€å€¼
 133              		.loc 1 64 3 view .LVU22
  65:Core/Src/NRF24L01.c **** }
 134              		.loc 1 65 1 is_stmt 0 view .LVU23
 135 0034 2046     		mov	r0, r4
 136 0036 F8BD     		pop	{r3, r4, r5, r6, r7, pc}
 137              	.LVL11:
 138              	.L7:
 139              		.loc 1 65 1 view .LVU24
 140              		.align	2
 141              	.L6:
 142 0038 00040240 		.word	1073873920
 143 003c 00000000 		.word	hspi2
 144              		.cfi_endproc
 145              	.LFE135:
 147              		.section	.text.NRF24L01_Read_Reg,"ax",%progbits
 148              		.align	1
 149              		.global	NRF24L01_Read_Reg
 150              		.syntax unified
 151              		.thumb
 152              		.thumb_func
 153              		.fpu fpv4-sp-d16
 155              	NRF24L01_Read_Reg:
 156              	.LVL12:
 157              	.LFB136:
  66:Core/Src/NRF24L01.c **** 
  67:Core/Src/NRF24L01.c **** /**
  68:Core/Src/NRF24L01.c ****   * å‡½æ•°åŠŸèƒ½: è¯»å–SPIå¯„å­˜å™¨å€¼
  69:Core/Src/NRF24L01.c ****   * è¾“å…¥å‚æ•°: æ— 
  70:Core/Src/NRF24L01.c ****   * è¿” å› å€¼: æ— 
  71:Core/Src/NRF24L01.c ****   * è¯´    æ˜ï¼šreg:è¦è¯»çš„å¯„å­˜å™¨
  72:Core/Src/NRF24L01.c ****   *           
  73:Core/Src/NRF24L01.c ****   */ 
  74:Core/Src/NRF24L01.c **** uint8_t NRF24L01_Read_Reg(uint8_t reg)
  75:Core/Src/NRF24L01.c **** {
 158              		.loc 1 75 1 is_stmt 1 view -0
ARM GAS  C:\Users\Kiana\AppData\Local\Temp\cc18u8J1.s 			page 5


 159              		.cfi_startproc
 160              		@ args = 0, pretend = 0, frame = 0
 161              		@ frame_needed = 0, uses_anonymous_args = 0
 162              		.loc 1 75 1 is_stmt 0 view .LVU26
 163 0000 70B5     		push	{r4, r5, r6, lr}
 164              	.LCFI4:
 165              		.cfi_def_cfa_offset 16
 166              		.cfi_offset 4, -16
 167              		.cfi_offset 5, -12
 168              		.cfi_offset 6, -8
 169              		.cfi_offset 14, -4
 170 0002 0446     		mov	r4, r0
  76:Core/Src/NRF24L01.c **** 	uint8_t reg_val;	    
 171              		.loc 1 76 2 is_stmt 1 view .LVU27
  77:Core/Src/NRF24L01.c ****  	NRF24L01_SPI_CS_ENABLE();          //ä½¿èƒ½SPIä¼ è¾“		
 172              		.loc 1 77 3 view .LVU28
 173 0004 0C4D     		ldr	r5, .L10
 174 0006 0022     		movs	r2, #0
 175 0008 4FF48051 		mov	r1, #4096
 176 000c 2846     		mov	r0, r5
 177              	.LVL13:
 178              		.loc 1 77 3 is_stmt 0 view .LVU29
 179 000e FFF7FEFF 		bl	HAL_GPIO_WritePin
 180              	.LVL14:
  78:Core/Src/NRF24L01.c ****   SPIx_ReadWriteByte(&hspi_NRF24L01,reg);   //å‘é€å¯„å­˜å™¨å·
 181              		.loc 1 78 3 is_stmt 1 view .LVU30
 182 0012 0A4E     		ldr	r6, .L10+4
 183 0014 2146     		mov	r1, r4
 184 0016 3046     		mov	r0, r6
 185 0018 FFF7FEFF 		bl	SPIx_ReadWriteByte
 186              	.LVL15:
  79:Core/Src/NRF24L01.c ****   reg_val=SPIx_ReadWriteByte(&hspi_NRF24L01,0XFF);//è¯»å–å¯„å­˜å™¨å†…å®¹
 187              		.loc 1 79 3 view .LVU31
 188              		.loc 1 79 11 is_stmt 0 view .LVU32
 189 001c FF21     		movs	r1, #255
 190 001e 3046     		mov	r0, r6
 191 0020 FFF7FEFF 		bl	SPIx_ReadWriteByte
 192              	.LVL16:
 193 0024 0446     		mov	r4, r0
 194              	.LVL17:
  80:Core/Src/NRF24L01.c ****   NRF24L01_SPI_CS_DISABLE();          //ç¦æ­¢SPIä¼ è¾“		    
 195              		.loc 1 80 3 is_stmt 1 view .LVU33
 196 0026 0122     		movs	r2, #1
 197 0028 4FF48051 		mov	r1, #4096
 198 002c 2846     		mov	r0, r5
 199 002e FFF7FEFF 		bl	HAL_GPIO_WritePin
 200              	.LVL18:
  81:Core/Src/NRF24L01.c ****   return(reg_val);           //è¿”å›çŠ¶æ€å€¼
 201              		.loc 1 81 3 view .LVU34
  82:Core/Src/NRF24L01.c **** }	
 202              		.loc 1 82 1 is_stmt 0 view .LVU35
 203 0032 2046     		mov	r0, r4
 204 0034 70BD     		pop	{r4, r5, r6, pc}
 205              	.LVL19:
 206              	.L11:
 207              		.loc 1 82 1 view .LVU36
 208 0036 00BF     		.align	2
ARM GAS  C:\Users\Kiana\AppData\Local\Temp\cc18u8J1.s 			page 6


 209              	.L10:
 210 0038 00040240 		.word	1073873920
 211 003c 00000000 		.word	hspi2
 212              		.cfi_endproc
 213              	.LFE136:
 215              		.section	.text.NRF24L01_Read_Buf,"ax",%progbits
 216              		.align	1
 217              		.global	NRF24L01_Read_Buf
 218              		.syntax unified
 219              		.thumb
 220              		.thumb_func
 221              		.fpu fpv4-sp-d16
 223              	NRF24L01_Read_Buf:
 224              	.LVL20:
 225              	.LFB137:
  83:Core/Src/NRF24L01.c **** 
  84:Core/Src/NRF24L01.c **** /**
  85:Core/Src/NRF24L01.c ****   * å‡½æ•°åŠŸèƒ½: åœ¨æŒ‡å®šä½ç½®è¯»å‡ºæŒ‡å®šé•¿åº¦çš„æ•°æ®
  86:Core/Src/NRF24L01.c ****   * è¾“å…¥å‚æ•°: æ— 
  87:Core/Src/NRF24L01.c ****   * è¿” å› å€¼: æ­¤æ¬¡è¯»åˆ°çš„çŠ¶æ€å¯„å­˜å™¨å€¼ 
  88:Core/Src/NRF24L01.c ****   * è¯´    æ˜ï¼šæ— 
  89:Core/Src/NRF24L01.c ****   *           
  90:Core/Src/NRF24L01.c ****   */ 
  91:Core/Src/NRF24L01.c **** uint8_t NRF24L01_Read_Buf(uint8_t reg,uint8_t *pBuf,uint8_t len)
  92:Core/Src/NRF24L01.c **** {
 226              		.loc 1 92 1 is_stmt 1 view -0
 227              		.cfi_startproc
 228              		@ args = 0, pretend = 0, frame = 0
 229              		@ frame_needed = 0, uses_anonymous_args = 0
 230              		.loc 1 92 1 is_stmt 0 view .LVU38
 231 0000 F8B5     		push	{r3, r4, r5, r6, r7, lr}
 232              	.LCFI5:
 233              		.cfi_def_cfa_offset 24
 234              		.cfi_offset 3, -24
 235              		.cfi_offset 4, -20
 236              		.cfi_offset 5, -16
 237              		.cfi_offset 6, -12
 238              		.cfi_offset 7, -8
 239              		.cfi_offset 14, -4
 240 0002 0446     		mov	r4, r0
 241 0004 0E46     		mov	r6, r1
 242 0006 1546     		mov	r5, r2
  93:Core/Src/NRF24L01.c **** 	uint8_t status,uint8_t_ctr;	   
 243              		.loc 1 93 2 is_stmt 1 view .LVU39
  94:Core/Src/NRF24L01.c ****   
  95:Core/Src/NRF24L01.c ****   NRF24L01_SPI_CS_ENABLE();           //ä½¿èƒ½SPIä¼ è¾“
 244              		.loc 1 95 3 view .LVU40
 245 0008 0022     		movs	r2, #0
 246              	.LVL21:
 247              		.loc 1 95 3 is_stmt 0 view .LVU41
 248 000a 4FF48051 		mov	r1, #4096
 249              	.LVL22:
 250              		.loc 1 95 3 view .LVU42
 251 000e 0D48     		ldr	r0, .L17
 252              	.LVL23:
 253              		.loc 1 95 3 view .LVU43
 254 0010 FFF7FEFF 		bl	HAL_GPIO_WritePin
ARM GAS  C:\Users\Kiana\AppData\Local\Temp\cc18u8J1.s 			page 7


 255              	.LVL24:
  96:Core/Src/NRF24L01.c ****   status=SPIx_ReadWriteByte(&hspi_NRF24L01,reg);//å‘é€å¯„å­˜å™¨å€¼(ä½ç½®),å¹¶è¯»å–çŠ¶æ€å€¼   	
 256              		.loc 1 96 3 is_stmt 1 view .LVU44
 257              		.loc 1 96 10 is_stmt 0 view .LVU45
 258 0014 2146     		mov	r1, r4
 259 0016 0C48     		ldr	r0, .L17+4
 260 0018 FFF7FEFF 		bl	SPIx_ReadWriteByte
 261              	.LVL25:
 262 001c 0746     		mov	r7, r0
 263              	.LVL26:
  97:Core/Src/NRF24L01.c ****  	for(uint8_t_ctr=0;uint8_t_ctr<len;uint8_t_ctr++)
 264              		.loc 1 97 3 is_stmt 1 view .LVU46
 265              		.loc 1 97 18 is_stmt 0 view .LVU47
 266 001e 0024     		movs	r4, #0
 267              	.LVL27:
 268              	.L13:
 269              		.loc 1 97 21 is_stmt 1 discriminator 1 view .LVU48
 270              		.loc 1 97 3 is_stmt 0 discriminator 1 view .LVU49
 271 0020 AC42     		cmp	r4, r5
 272 0022 07D2     		bcs	.L16
  98:Core/Src/NRF24L01.c ****   {
  99:Core/Src/NRF24L01.c ****     pBuf[uint8_t_ctr]=SPIx_ReadWriteByte(&hspi_NRF24L01,0XFF);//è¯»å‡ºæ•°æ®
 273              		.loc 1 99 5 is_stmt 1 discriminator 3 view .LVU50
 274              		.loc 1 99 23 is_stmt 0 discriminator 3 view .LVU51
 275 0024 FF21     		movs	r1, #255
 276 0026 0848     		ldr	r0, .L17+4
 277 0028 FFF7FEFF 		bl	SPIx_ReadWriteByte
 278              	.LVL28:
 279              		.loc 1 99 22 discriminator 3 view .LVU52
 280 002c 3055     		strb	r0, [r6, r4]
  97:Core/Src/NRF24L01.c ****  	for(uint8_t_ctr=0;uint8_t_ctr<len;uint8_t_ctr++)
 281              		.loc 1 97 37 is_stmt 1 discriminator 3 view .LVU53
  97:Core/Src/NRF24L01.c ****  	for(uint8_t_ctr=0;uint8_t_ctr<len;uint8_t_ctr++)
 282              		.loc 1 97 48 is_stmt 0 discriminator 3 view .LVU54
 283 002e 0134     		adds	r4, r4, #1
 284              	.LVL29:
  97:Core/Src/NRF24L01.c ****  	for(uint8_t_ctr=0;uint8_t_ctr<len;uint8_t_ctr++)
 285              		.loc 1 97 48 discriminator 3 view .LVU55
 286 0030 E4B2     		uxtb	r4, r4
 287              	.LVL30:
  97:Core/Src/NRF24L01.c ****  	for(uint8_t_ctr=0;uint8_t_ctr<len;uint8_t_ctr++)
 288              		.loc 1 97 48 discriminator 3 view .LVU56
 289 0032 F5E7     		b	.L13
 290              	.L16:
 100:Core/Src/NRF24L01.c ****   }
 101:Core/Src/NRF24L01.c ****   NRF24L01_SPI_CS_DISABLE();       //å…³é—­SPIä¼ è¾“
 291              		.loc 1 101 3 is_stmt 1 view .LVU57
 292 0034 0122     		movs	r2, #1
 293 0036 4FF48051 		mov	r1, #4096
 294 003a 0248     		ldr	r0, .L17
 295 003c FFF7FEFF 		bl	HAL_GPIO_WritePin
 296              	.LVL31:
 102:Core/Src/NRF24L01.c ****   return status;                  //è¿”å›è¯»åˆ°çš„çŠ¶æ€å€¼
 297              		.loc 1 102 3 view .LVU58
 103:Core/Src/NRF24L01.c **** }
 298              		.loc 1 103 1 is_stmt 0 view .LVU59
 299 0040 3846     		mov	r0, r7
ARM GAS  C:\Users\Kiana\AppData\Local\Temp\cc18u8J1.s 			page 8


 300 0042 F8BD     		pop	{r3, r4, r5, r6, r7, pc}
 301              	.LVL32:
 302              	.L18:
 303              		.loc 1 103 1 view .LVU60
 304              		.align	2
 305              	.L17:
 306 0044 00040240 		.word	1073873920
 307 0048 00000000 		.word	hspi2
 308              		.cfi_endproc
 309              	.LFE137:
 311              		.section	.text.NRF24L01_Write_Buf,"ax",%progbits
 312              		.align	1
 313              		.global	NRF24L01_Write_Buf
 314              		.syntax unified
 315              		.thumb
 316              		.thumb_func
 317              		.fpu fpv4-sp-d16
 319              	NRF24L01_Write_Buf:
 320              	.LVL33:
 321              	.LFB138:
 104:Core/Src/NRF24L01.c **** 
 105:Core/Src/NRF24L01.c **** /**
 106:Core/Src/NRF24L01.c ****   * å‡½æ•°åŠŸèƒ½: åœ¨æŒ‡å®šä½ç½®å†™æŒ‡å®šé•¿åº¦çš„æ•°æ®
 107:Core/Src/NRF24L01.c ****   * è¾“å…¥å‚æ•°: æ— 
 108:Core/Src/NRF24L01.c ****   * è¿” å› å€¼: æ— 
 109:Core/Src/NRF24L01.c ****   * è¯´    æ˜ï¼šreg:å¯„å­˜å™¨(ä½ç½®)  *pBuf:æ•°æ®æŒ‡é’ˆ  len:æ•°æ®é•¿åº¦
 110:Core/Src/NRF24L01.c ****   *           
 111:Core/Src/NRF24L01.c ****   */ 
 112:Core/Src/NRF24L01.c **** uint8_t NRF24L01_Write_Buf(uint8_t reg, uint8_t *pBuf, uint8_t len)
 113:Core/Src/NRF24L01.c **** {
 322              		.loc 1 113 1 is_stmt 1 view -0
 323              		.cfi_startproc
 324              		@ args = 0, pretend = 0, frame = 0
 325              		@ frame_needed = 0, uses_anonymous_args = 0
 326              		.loc 1 113 1 is_stmt 0 view .LVU62
 327 0000 F8B5     		push	{r3, r4, r5, r6, r7, lr}
 328              	.LCFI6:
 329              		.cfi_def_cfa_offset 24
 330              		.cfi_offset 3, -24
 331              		.cfi_offset 4, -20
 332              		.cfi_offset 5, -16
 333              		.cfi_offset 6, -12
 334              		.cfi_offset 7, -8
 335              		.cfi_offset 14, -4
 336 0002 0546     		mov	r5, r0
 337 0004 0C46     		mov	r4, r1
 338 0006 1646     		mov	r6, r2
 114:Core/Src/NRF24L01.c **** 	uint8_t status,uint8_t_ctr;	    
 339              		.loc 1 114 2 is_stmt 1 view .LVU63
 115:Core/Src/NRF24L01.c ****  	NRF24L01_SPI_CS_ENABLE();          //ä½¿èƒ½SPIä¼ è¾“
 340              		.loc 1 115 3 view .LVU64
 341 0008 0022     		movs	r2, #0
 342              	.LVL34:
 343              		.loc 1 115 3 is_stmt 0 view .LVU65
 344 000a 4FF48051 		mov	r1, #4096
 345              	.LVL35:
 346              		.loc 1 115 3 view .LVU66
ARM GAS  C:\Users\Kiana\AppData\Local\Temp\cc18u8J1.s 			page 9


 347 000e 0D48     		ldr	r0, .L24
 348              	.LVL36:
 349              		.loc 1 115 3 view .LVU67
 350 0010 FFF7FEFF 		bl	HAL_GPIO_WritePin
 351              	.LVL37:
 116:Core/Src/NRF24L01.c ****   status = SPIx_ReadWriteByte(&hspi_NRF24L01,reg);//å‘é€å¯„å­˜å™¨å€¼(ä½ç½®),å¹¶è¯»å–çŠ¶æ€å€¼
 352              		.loc 1 116 3 is_stmt 1 view .LVU68
 353              		.loc 1 116 12 is_stmt 0 view .LVU69
 354 0014 2946     		mov	r1, r5
 355 0016 0C48     		ldr	r0, .L24+4
 356 0018 FFF7FEFF 		bl	SPIx_ReadWriteByte
 357              	.LVL38:
 358 001c 0746     		mov	r7, r0
 359              	.LVL39:
 117:Core/Src/NRF24L01.c ****   for(uint8_t_ctr=0; uint8_t_ctr<len; uint8_t_ctr++)
 360              		.loc 1 117 3 is_stmt 1 view .LVU70
 361              		.loc 1 117 18 is_stmt 0 view .LVU71
 362 001e 0025     		movs	r5, #0
 363              	.LVL40:
 364              	.L20:
 365              		.loc 1 117 22 is_stmt 1 discriminator 1 view .LVU72
 366              		.loc 1 117 3 is_stmt 0 discriminator 1 view .LVU73
 367 0020 B542     		cmp	r5, r6
 368 0022 07D2     		bcs	.L23
 118:Core/Src/NRF24L01.c ****   {
 119:Core/Src/NRF24L01.c ****     SPIx_ReadWriteByte(&hspi_NRF24L01,*pBuf++); //å†™å…¥æ•°æ®	 
 369              		.loc 1 119 5 is_stmt 1 discriminator 3 view .LVU74
 370              	.LVL41:
 371              		.loc 1 119 5 is_stmt 0 discriminator 3 view .LVU75
 372 0024 14F8011B 		ldrb	r1, [r4], #1	@ zero_extendqisi2
 373              	.LVL42:
 374              		.loc 1 119 5 discriminator 3 view .LVU76
 375 0028 0748     		ldr	r0, .L24+4
 376 002a FFF7FEFF 		bl	SPIx_ReadWriteByte
 377              	.LVL43:
 117:Core/Src/NRF24L01.c ****   for(uint8_t_ctr=0; uint8_t_ctr<len; uint8_t_ctr++)
 378              		.loc 1 117 39 is_stmt 1 discriminator 3 view .LVU77
 117:Core/Src/NRF24L01.c ****   for(uint8_t_ctr=0; uint8_t_ctr<len; uint8_t_ctr++)
 379              		.loc 1 117 50 is_stmt 0 discriminator 3 view .LVU78
 380 002e 0135     		adds	r5, r5, #1
 381              	.LVL44:
 117:Core/Src/NRF24L01.c ****   for(uint8_t_ctr=0; uint8_t_ctr<len; uint8_t_ctr++)
 382              		.loc 1 117 50 discriminator 3 view .LVU79
 383 0030 EDB2     		uxtb	r5, r5
 384              	.LVL45:
 117:Core/Src/NRF24L01.c ****   for(uint8_t_ctr=0; uint8_t_ctr<len; uint8_t_ctr++)
 385              		.loc 1 117 50 discriminator 3 view .LVU80
 386 0032 F5E7     		b	.L20
 387              	.L23:
 120:Core/Src/NRF24L01.c ****   }
 121:Core/Src/NRF24L01.c ****   NRF24L01_SPI_CS_DISABLE();       //å…³é—­SPIä¼ è¾“
 388              		.loc 1 121 3 is_stmt 1 view .LVU81
 389 0034 0122     		movs	r2, #1
 390 0036 4FF48051 		mov	r1, #4096
 391 003a 0248     		ldr	r0, .L24
 392 003c FFF7FEFF 		bl	HAL_GPIO_WritePin
 393              	.LVL46:
ARM GAS  C:\Users\Kiana\AppData\Local\Temp\cc18u8J1.s 			page 10


 122:Core/Src/NRF24L01.c ****   return status;          //è¿”å›è¯»åˆ°çš„çŠ¶æ€å€¼
 394              		.loc 1 122 3 view .LVU82
 123:Core/Src/NRF24L01.c **** }				   
 395              		.loc 1 123 1 is_stmt 0 view .LVU83
 396 0040 3846     		mov	r0, r7
 397 0042 F8BD     		pop	{r3, r4, r5, r6, r7, pc}
 398              	.LVL47:
 399              	.L25:
 400              		.loc 1 123 1 view .LVU84
 401              		.align	2
 402              	.L24:
 403 0044 00040240 		.word	1073873920
 404 0048 00000000 		.word	hspi2
 405              		.cfi_endproc
 406              	.LFE138:
 408              		.section	.rodata.NRF24L01_Check.str1.4,"aMS",%progbits,1
 409              		.align	2
 410              	.LC0:
 411 0000 A5A5A5A5 		.ascii	"\245\245\245\245\245\000"
 411      A500
 412              		.section	.text.NRF24L01_Check,"ax",%progbits
 413              		.align	1
 414              		.global	NRF24L01_Check
 415              		.syntax unified
 416              		.thumb
 417              		.thumb_func
 418              		.fpu fpv4-sp-d16
 420              	NRF24L01_Check:
 421              	.LFB134:
  39:Core/Src/NRF24L01.c **** 	uint8_t buf[5]={0XA5,0XA5,0XA5,0XA5,0XA5};
 422              		.loc 1 39 1 is_stmt 1 view -0
 423              		.cfi_startproc
 424              		@ args = 0, pretend = 0, frame = 8
 425              		@ frame_needed = 0, uses_anonymous_args = 0
 426 0000 00B5     		push	{lr}
 427              	.LCFI7:
 428              		.cfi_def_cfa_offset 4
 429              		.cfi_offset 14, -4
 430 0002 83B0     		sub	sp, sp, #12
 431              	.LCFI8:
 432              		.cfi_def_cfa_offset 16
  40:Core/Src/NRF24L01.c **** 	uint8_t i;
 433              		.loc 1 40 2 view .LVU86
  40:Core/Src/NRF24L01.c **** 	uint8_t i;
 434              		.loc 1 40 10 is_stmt 0 view .LVU87
 435 0004 114B     		ldr	r3, .L33
 436 0006 93E80300 		ldm	r3, {r0, r1}
 437 000a 0090     		str	r0, [sp]
 438 000c 8DF80410 		strb	r1, [sp, #4]
  41:Core/Src/NRF24L01.c ****   
 439              		.loc 1 41 2 is_stmt 1 view .LVU88
  43:Core/Src/NRF24L01.c **** 	NRF24L01_Read_Buf(TX_ADDR,buf,5); //è¯»å‡ºå†™å…¥çš„åœ°å€  
 440              		.loc 1 43 2 view .LVU89
 441 0010 0522     		movs	r2, #5
 442 0012 6946     		mov	r1, sp
 443 0014 3020     		movs	r0, #48
 444 0016 FFF7FEFF 		bl	NRF24L01_Write_Buf
ARM GAS  C:\Users\Kiana\AppData\Local\Temp\cc18u8J1.s 			page 11


 445              	.LVL48:
  44:Core/Src/NRF24L01.c **** 	for(i=0;i<5;i++)if(buf[i]!=0XA5)break;	 							   
 446              		.loc 1 44 2 view .LVU90
 447 001a 0522     		movs	r2, #5
 448 001c 6946     		mov	r1, sp
 449 001e 1020     		movs	r0, #16
 450 0020 FFF7FEFF 		bl	NRF24L01_Read_Buf
 451              	.LVL49:
  45:Core/Src/NRF24L01.c **** 	if(i!=5)return 1;//æ£€æµ‹24L01é”™è¯¯	
 452              		.loc 1 45 2 view .LVU91
  45:Core/Src/NRF24L01.c **** 	if(i!=5)return 1;//æ£€æµ‹24L01é”™è¯¯	
 453              		.loc 1 45 7 is_stmt 0 view .LVU92
 454 0024 0023     		movs	r3, #0
 455              	.LVL50:
 456              	.L27:
  45:Core/Src/NRF24L01.c **** 	if(i!=5)return 1;//æ£€æµ‹24L01é”™è¯¯	
 457              		.loc 1 45 10 is_stmt 1 discriminator 3 view .LVU93
  45:Core/Src/NRF24L01.c **** 	if(i!=5)return 1;//æ£€æµ‹24L01é”™è¯¯	
 458              		.loc 1 45 2 is_stmt 0 discriminator 3 view .LVU94
 459 0026 042B     		cmp	r3, #4
 460 0028 08D8     		bhi	.L28
  45:Core/Src/NRF24L01.c **** 	if(i!=5)return 1;//æ£€æµ‹24L01é”™è¯¯	
 461              		.loc 1 45 18 is_stmt 1 discriminator 4 view .LVU95
  45:Core/Src/NRF24L01.c **** 	if(i!=5)return 1;//æ£€æµ‹24L01é”™è¯¯	
 462              		.loc 1 45 24 is_stmt 0 discriminator 4 view .LVU96
 463 002a 02AA     		add	r2, sp, #8
 464 002c 1A44     		add	r2, r2, r3
 465 002e 12F8082C 		ldrb	r2, [r2, #-8]	@ zero_extendqisi2
  45:Core/Src/NRF24L01.c **** 	if(i!=5)return 1;//æ£€æµ‹24L01é”™è¯¯	
 466              		.loc 1 45 20 discriminator 4 view .LVU97
 467 0032 A52A     		cmp	r2, #165
 468 0034 02D1     		bne	.L28
  45:Core/Src/NRF24L01.c **** 	if(i!=5)return 1;//æ£€æµ‹24L01é”™è¯¯	
 469              		.loc 1 45 14 is_stmt 1 discriminator 2 view .LVU98
  45:Core/Src/NRF24L01.c **** 	if(i!=5)return 1;//æ£€æµ‹24L01é”™è¯¯	
 470              		.loc 1 45 15 is_stmt 0 discriminator 2 view .LVU99
 471 0036 0133     		adds	r3, r3, #1
 472              	.LVL51:
  45:Core/Src/NRF24L01.c **** 	if(i!=5)return 1;//æ£€æµ‹24L01é”™è¯¯	
 473              		.loc 1 45 15 discriminator 2 view .LVU100
 474 0038 DBB2     		uxtb	r3, r3
 475              	.LVL52:
  45:Core/Src/NRF24L01.c **** 	if(i!=5)return 1;//æ£€æµ‹24L01é”™è¯¯	
 476              		.loc 1 45 15 discriminator 2 view .LVU101
 477 003a F4E7     		b	.L27
 478              	.L28:
  46:Core/Src/NRF24L01.c **** 	return 0;		 //æ£€æµ‹åˆ°24L01
 479              		.loc 1 46 2 is_stmt 1 view .LVU102
  46:Core/Src/NRF24L01.c **** 	return 0;		 //æ£€æµ‹åˆ°24L01
 480              		.loc 1 46 4 is_stmt 0 view .LVU103
 481 003c 052B     		cmp	r3, #5
 482 003e 03D1     		bne	.L31
  47:Core/Src/NRF24L01.c **** }	 	 
 483              		.loc 1 47 9 view .LVU104
 484 0040 0020     		movs	r0, #0
 485              	.L30:
  48:Core/Src/NRF24L01.c **** 
ARM GAS  C:\Users\Kiana\AppData\Local\Temp\cc18u8J1.s 			page 12


 486              		.loc 1 48 1 view .LVU105
 487 0042 03B0     		add	sp, sp, #12
 488              	.LCFI9:
 489              		.cfi_remember_state
 490              		.cfi_def_cfa_offset 4
 491              		@ sp needed
 492 0044 5DF804FB 		ldr	pc, [sp], #4
 493              	.L31:
 494              	.LCFI10:
 495              		.cfi_restore_state
  46:Core/Src/NRF24L01.c **** 	return 0;		 //æ£€æµ‹åˆ°24L01
 496              		.loc 1 46 17 view .LVU106
 497 0048 0120     		movs	r0, #1
 498 004a FAE7     		b	.L30
 499              	.L34:
 500              		.align	2
 501              	.L33:
 502 004c 00000000 		.word	.LC0
 503              		.cfi_endproc
 504              	.LFE134:
 506              		.section	.rodata.NRF24L01_TxPacket.str1.4,"aMS",%progbits,1
 507              		.align	2
 508              	.LC1:
 509 0000 4E524632 		.ascii	"NRF24L01 MAX_TX\015\000"
 509      344C3031 
 509      204D4158 
 509      5F54580D 
 509      00
 510 0011 000000   		.align	2
 511              	.LC2:
 512 0014 4E524632 		.ascii	"NRF24L01 RX_OK:%d\015\012\000"
 512      344C3031 
 512      2052585F 
 512      4F4B3A25 
 512      640D0A00 
 513              		.align	2
 514              	.LC3:
 515 0028 4E524632 		.ascii	"NRF24L01 TX_OK\015\000"
 515      344C3031 
 515      2054585F 
 515      4F4B0D00 
 516              		.align	2
 517              	.LC4:
 518 0038 4E524632 		.ascii	"NRF24L01 RX_OK\015\000"
 518      344C3031 
 518      2052585F 
 518      4F4B0D00 
 519              		.align	2
 520              	.LC5:
 521 0048 4E524632 		.ascii	"NRF24L01 Fail because other reason\015\000"
 521      344C3031 
 521      20466169 
 521      6C206265 
 521      63617573 
 522              		.section	.text.NRF24L01_TxPacket,"ax",%progbits
 523              		.align	1
 524              		.global	NRF24L01_TxPacket
ARM GAS  C:\Users\Kiana\AppData\Local\Temp\cc18u8J1.s 			page 13


 525              		.syntax unified
 526              		.thumb
 527              		.thumb_func
 528              		.fpu fpv4-sp-d16
 530              	NRF24L01_TxPacket:
 531              	.LVL53:
 532              	.LFB139:
 124:Core/Src/NRF24L01.c **** 
 125:Core/Src/NRF24L01.c **** /**
 126:Core/Src/NRF24L01.c ****   * å‡½æ•°åŠŸèƒ½: å¯åŠ¨NRF24L01å‘é€ä¸€æ¬¡æ•°æ®
 127:Core/Src/NRF24L01.c ****   * è¾“å…¥å‚æ•°: æ— 
 128:Core/Src/NRF24L01.c ****   * è¿” å› å€¼: å‘é€å®ŒæˆçŠ¶å†µ
 129:Core/Src/NRF24L01.c ****   * è¯´    æ˜ï¼štxbuf:å¾…å‘é€æ•°æ®é¦–åœ°å€
 130:Core/Src/NRF24L01.c ****   *           
 131:Core/Src/NRF24L01.c ****   */ 
 132:Core/Src/NRF24L01.c **** uint8_t NRF24L01_TxPacket(uint8_t *txbuf,uint8_t *rxbuf)
 133:Core/Src/NRF24L01.c **** {
 533              		.loc 1 133 1 is_stmt 1 view -0
 534              		.cfi_startproc
 535              		@ args = 0, pretend = 0, frame = 0
 536              		@ frame_needed = 0, uses_anonymous_args = 0
 537              		.loc 1 133 1 is_stmt 0 view .LVU108
 538 0000 70B5     		push	{r4, r5, r6, lr}
 539              	.LCFI11:
 540              		.cfi_def_cfa_offset 16
 541              		.cfi_offset 4, -16
 542              		.cfi_offset 5, -12
 543              		.cfi_offset 6, -8
 544              		.cfi_offset 14, -4
 545 0002 0446     		mov	r4, r0
 546 0004 0E46     		mov	r6, r1
 134:Core/Src/NRF24L01.c **** 	uint8_t sta;
 547              		.loc 1 134 2 is_stmt 1 view .LVU109
 135:Core/Src/NRF24L01.c **** 	NRF24L01_CE_LOW();
 548              		.loc 1 135 2 view .LVU110
 549 0006 334D     		ldr	r5, .L49
 550 0008 0022     		movs	r2, #0
 551 000a 4FF48061 		mov	r1, #1024
 552              	.LVL54:
 553              		.loc 1 135 2 is_stmt 0 view .LVU111
 554 000e 2846     		mov	r0, r5
 555              	.LVL55:
 556              		.loc 1 135 2 view .LVU112
 557 0010 FFF7FEFF 		bl	HAL_GPIO_WritePin
 558              	.LVL56:
 136:Core/Src/NRF24L01.c ****   NRF24L01_Write_Buf(WR_TX_PLOAD,txbuf,TX_PLOAD_WIDTH);//å†™æ•°æ®åˆ°TX BUF  32ä¸ªå­—èŠ‚
 559              		.loc 1 136 3 is_stmt 1 view .LVU113
 560 0014 2022     		movs	r2, #32
 561 0016 2146     		mov	r1, r4
 562 0018 A020     		movs	r0, #160
 563 001a FFF7FEFF 		bl	NRF24L01_Write_Buf
 564              	.LVL57:
 137:Core/Src/NRF24L01.c ****  	//NRF24L01_Write_Buf(NRF_WRITE_REG | TX_ADDR,(uint8_t*)TX_ADDRESS,RX_ADR_WIDTH);    //å†™è‡ªå·±çš
 138:Core/Src/NRF24L01.c ****   //NRF24L01_Write_Buf(NRF_WRITE_REG + RX_ADDR_P0,(uint8_t*)TX_ADDRESS,TX_ADR_WIDTH); //å¯ç”¨åº”ç­
 139:Core/Src/NRF24L01.c ****   NRF24L01_CE_HIGH();                                  //å¯åŠ¨å‘é€	 
 565              		.loc 1 139 3 view .LVU114
 566 001e 0122     		movs	r2, #1
ARM GAS  C:\Users\Kiana\AppData\Local\Temp\cc18u8J1.s 			page 14


 567 0020 4FF48061 		mov	r1, #1024
 568 0024 2846     		mov	r0, r5
 569 0026 FFF7FEFF 		bl	HAL_GPIO_WritePin
 570              	.LVL58:
 140:Core/Src/NRF24L01.c ****   
 141:Core/Src/NRF24L01.c **** 	while(NRF24L01_IRQ_PIN_READ()!=0);                   //ç­‰å¾…å‘é€å®Œæˆ
 571              		.loc 1 141 2 view .LVU115
 572              	.L36:
 573              		.loc 1 141 35 discriminator 1 view .LVU116
 574              		.loc 1 141 7 discriminator 1 view .LVU117
 575              		.loc 1 141 8 is_stmt 0 discriminator 1 view .LVU118
 576 002a 4FF48071 		mov	r1, #256
 577 002e 2A48     		ldr	r0, .L49+4
 578 0030 FFF7FEFF 		bl	HAL_GPIO_ReadPin
 579              	.LVL59:
 580              		.loc 1 141 7 discriminator 1 view .LVU119
 581 0034 0028     		cmp	r0, #0
 582 0036 F8D1     		bne	.L36
 142:Core/Src/NRF24L01.c **** 	sta=NRF24L01_Read_Reg(STATUS);                       //è¯»å–çŠ¶æ€å¯„å­˜å™¨çš„å€¼	   
 583              		.loc 1 142 2 is_stmt 1 view .LVU120
 584              		.loc 1 142 6 is_stmt 0 view .LVU121
 585 0038 0720     		movs	r0, #7
 586 003a FFF7FEFF 		bl	NRF24L01_Read_Reg
 587              	.LVL60:
 588 003e 0446     		mov	r4, r0
 589              	.LVL61:
 143:Core/Src/NRF24L01.c **** 	NRF24L01_Write_Reg(NRF_WRITE_REG+STATUS,sta);        //æ¸…é™¤TX_DSæˆ–MAX_RTä¸­æ–­æ ‡å¿—
 590              		.loc 1 143 2 is_stmt 1 view .LVU122
 591 0040 0146     		mov	r1, r0
 592 0042 2720     		movs	r0, #39
 593              	.LVL62:
 594              		.loc 1 143 2 is_stmt 0 view .LVU123
 595 0044 FFF7FEFF 		bl	NRF24L01_Write_Reg
 596              	.LVL63:
 144:Core/Src/NRF24L01.c **** 	if(sta&MAX_TX)                                       //è¾¾åˆ°æœ€å¤§é‡å‘æ¬¡æ•°
 597              		.loc 1 144 2 is_stmt 1 view .LVU124
 598              		.loc 1 144 4 is_stmt 0 view .LVU125
 599 0048 14F0100F 		tst	r4, #16
 600 004c 0AD1     		bne	.L46
 145:Core/Src/NRF24L01.c **** 	{
 146:Core/Src/NRF24L01.c **** 		NRF24L01_Write_Reg(FLUSH_TX,0xff);                 //æ¸…é™¤TX FIFOå¯„å­˜å™¨
 147:Core/Src/NRF24L01.c ****     printf("NRF24L01 MAX_TX\r\n"); 
 148:Core/Src/NRF24L01.c **** 		return MAX_TX; 
 149:Core/Src/NRF24L01.c **** 	}
 150:Core/Src/NRF24L01.c **** 	if(sta&TX_OK)                                        //å‘é€å®Œæˆ
 601              		.loc 1 150 2 is_stmt 1 view .LVU126
 602              		.loc 1 150 4 is_stmt 0 view .LVU127
 603 004e 14F0200F 		tst	r4, #32
 604 0052 10D1     		bne	.L47
 151:Core/Src/NRF24L01.c **** 	{
 152:Core/Src/NRF24L01.c ****     /****************************************************************/
 153:Core/Src/NRF24L01.c ****     uint8_t rxlen = NRF24L01_Read_Reg(NRF_READ_REG + R_RX_PL_WID);
 154:Core/Src/NRF24L01.c ****     if(rxlen < 33)
 155:Core/Src/NRF24L01.c ****     {
 156:Core/Src/NRF24L01.c ****       NRF24L01_Read_Buf(RD_RX_PLOAD,rxbuf,rxlen);
 157:Core/Src/NRF24L01.c ****     }
 158:Core/Src/NRF24L01.c ****     else
ARM GAS  C:\Users\Kiana\AppData\Local\Temp\cc18u8J1.s 			page 15


 159:Core/Src/NRF24L01.c ****     {
 160:Core/Src/NRF24L01.c ****       rxlen = 0;
 161:Core/Src/NRF24L01.c ****       NRF24L01_Write_Reg(FLUSH_RX,0xff);
 162:Core/Src/NRF24L01.c ****     }
 163:Core/Src/NRF24L01.c ****     printf("NRF24L01 RX_OK:%d\r\n",rxbuf[0]); 
 164:Core/Src/NRF24L01.c ****     /****************************************************************/
 165:Core/Src/NRF24L01.c ****     printf("NRF24L01 TX_OK\r\n");
 166:Core/Src/NRF24L01.c **** 		return TX_OK;
 167:Core/Src/NRF24L01.c **** 	}
 168:Core/Src/NRF24L01.c ****   if(sta&RX_OK)
 605              		.loc 1 168 3 is_stmt 1 view .LVU128
 606              		.loc 1 168 5 is_stmt 0 view .LVU129
 607 0054 14F0400F 		tst	r4, #64
 608 0058 25D1     		bne	.L48
 169:Core/Src/NRF24L01.c ****   {
 170:Core/Src/NRF24L01.c ****     printf("NRF24L01 RX_OK\r\n"); 
 171:Core/Src/NRF24L01.c ****     uint8_t rxlen = NRF24L01_Read_Reg(NRF_READ_REG + R_RX_PL_WID);
 172:Core/Src/NRF24L01.c ****     if(rxlen < 33)
 173:Core/Src/NRF24L01.c ****     {
 174:Core/Src/NRF24L01.c ****       NRF24L01_Read_Buf(RD_RX_PLOAD,rxbuf,rxlen);
 175:Core/Src/NRF24L01.c ****     }
 176:Core/Src/NRF24L01.c ****     else
 177:Core/Src/NRF24L01.c ****     {
 178:Core/Src/NRF24L01.c ****       rxlen = 0;
 179:Core/Src/NRF24L01.c ****       NRF24L01_Write_Reg(FLUSH_RX,0xff);
 180:Core/Src/NRF24L01.c ****     }
 181:Core/Src/NRF24L01.c ****     printf("NRF24L01 RX_OK\r\n"); 
 182:Core/Src/NRF24L01.c ****     return RX_OK;
 183:Core/Src/NRF24L01.c ****   }
 184:Core/Src/NRF24L01.c ****   
 185:Core/Src/NRF24L01.c ****   printf("NRF24L01 Fail because other reason\r\n"); 
 609              		.loc 1 185 3 is_stmt 1 view .LVU130
 610 005a 2048     		ldr	r0, .L49+8
 611 005c FFF7FEFF 		bl	puts
 612              	.LVL64:
 186:Core/Src/NRF24L01.c **** 	return 0xff;                                         //å…¶ä»–åŸå› å‘é€å¤±è´¥
 613              		.loc 1 186 2 view .LVU131
 614              		.loc 1 186 9 is_stmt 0 view .LVU132
 615 0060 FF20     		movs	r0, #255
 616              	.L38:
 187:Core/Src/NRF24L01.c **** }
 617              		.loc 1 187 1 view .LVU133
 618 0062 70BD     		pop	{r4, r5, r6, pc}
 619              	.LVL65:
 620              	.L46:
 146:Core/Src/NRF24L01.c ****     printf("NRF24L01 MAX_TX\r\n"); 
 621              		.loc 1 146 3 is_stmt 1 view .LVU134
 622 0064 FF21     		movs	r1, #255
 623 0066 E120     		movs	r0, #225
 624 0068 FFF7FEFF 		bl	NRF24L01_Write_Reg
 625              	.LVL66:
 147:Core/Src/NRF24L01.c **** 		return MAX_TX; 
 626              		.loc 1 147 5 view .LVU135
 627 006c 1C48     		ldr	r0, .L49+12
 628 006e FFF7FEFF 		bl	puts
 629              	.LVL67:
 148:Core/Src/NRF24L01.c **** 	}
ARM GAS  C:\Users\Kiana\AppData\Local\Temp\cc18u8J1.s 			page 16


 630              		.loc 1 148 3 view .LVU136
 148:Core/Src/NRF24L01.c **** 	}
 631              		.loc 1 148 10 is_stmt 0 view .LVU137
 632 0072 1020     		movs	r0, #16
 633 0074 F5E7     		b	.L38
 634              	.L47:
 635              	.LBB2:
 153:Core/Src/NRF24L01.c ****     if(rxlen < 33)
 636              		.loc 1 153 5 is_stmt 1 view .LVU138
 153:Core/Src/NRF24L01.c ****     if(rxlen < 33)
 637              		.loc 1 153 21 is_stmt 0 view .LVU139
 638 0076 6020     		movs	r0, #96
 639 0078 FFF7FEFF 		bl	NRF24L01_Read_Reg
 640              	.LVL68:
 154:Core/Src/NRF24L01.c ****     {
 641              		.loc 1 154 5 is_stmt 1 view .LVU140
 154:Core/Src/NRF24L01.c ****     {
 642              		.loc 1 154 7 is_stmt 0 view .LVU141
 643 007c 2028     		cmp	r0, #32
 644 007e 0DD8     		bhi	.L40
 156:Core/Src/NRF24L01.c ****     }
 645              		.loc 1 156 7 is_stmt 1 view .LVU142
 646 0080 0246     		mov	r2, r0
 647 0082 3146     		mov	r1, r6
 648 0084 6120     		movs	r0, #97
 649              	.LVL69:
 156:Core/Src/NRF24L01.c ****     }
 650              		.loc 1 156 7 is_stmt 0 view .LVU143
 651 0086 FFF7FEFF 		bl	NRF24L01_Read_Buf
 652              	.LVL70:
 653              	.L41:
 163:Core/Src/NRF24L01.c ****     /****************************************************************/
 654              		.loc 1 163 5 is_stmt 1 view .LVU144
 655 008a 3178     		ldrb	r1, [r6]	@ zero_extendqisi2
 656 008c 1548     		ldr	r0, .L49+16
 657 008e FFF7FEFF 		bl	printf
 658              	.LVL71:
 165:Core/Src/NRF24L01.c **** 		return TX_OK;
 659              		.loc 1 165 5 view .LVU145
 660 0092 1548     		ldr	r0, .L49+20
 661 0094 FFF7FEFF 		bl	puts
 662              	.LVL72:
 166:Core/Src/NRF24L01.c **** 	}
 663              		.loc 1 166 3 view .LVU146
 166:Core/Src/NRF24L01.c **** 	}
 664              		.loc 1 166 10 is_stmt 0 view .LVU147
 665 0098 2020     		movs	r0, #32
 666 009a E2E7     		b	.L38
 667              	.LVL73:
 668              	.L40:
 160:Core/Src/NRF24L01.c ****       NRF24L01_Write_Reg(FLUSH_RX,0xff);
 669              		.loc 1 160 7 is_stmt 1 view .LVU148
 161:Core/Src/NRF24L01.c ****     }
 670              		.loc 1 161 7 view .LVU149
 671 009c FF21     		movs	r1, #255
 672 009e E220     		movs	r0, #226
 673 00a0 FFF7FEFF 		bl	NRF24L01_Write_Reg
ARM GAS  C:\Users\Kiana\AppData\Local\Temp\cc18u8J1.s 			page 17


 674              	.LVL74:
 675 00a4 F1E7     		b	.L41
 676              	.LVL75:
 677              	.L48:
 161:Core/Src/NRF24L01.c ****     }
 678              		.loc 1 161 7 is_stmt 0 view .LVU150
 679              	.LBE2:
 680              	.LBB3:
 170:Core/Src/NRF24L01.c ****     uint8_t rxlen = NRF24L01_Read_Reg(NRF_READ_REG + R_RX_PL_WID);
 681              		.loc 1 170 5 is_stmt 1 view .LVU151
 682 00a6 1148     		ldr	r0, .L49+24
 683 00a8 FFF7FEFF 		bl	puts
 684              	.LVL76:
 171:Core/Src/NRF24L01.c ****     if(rxlen < 33)
 685              		.loc 1 171 5 view .LVU152
 171:Core/Src/NRF24L01.c ****     if(rxlen < 33)
 686              		.loc 1 171 21 is_stmt 0 view .LVU153
 687 00ac 6020     		movs	r0, #96
 688 00ae FFF7FEFF 		bl	NRF24L01_Read_Reg
 689              	.LVL77:
 172:Core/Src/NRF24L01.c ****     {
 690              		.loc 1 172 5 is_stmt 1 view .LVU154
 172:Core/Src/NRF24L01.c ****     {
 691              		.loc 1 172 7 is_stmt 0 view .LVU155
 692 00b2 2028     		cmp	r0, #32
 693 00b4 09D8     		bhi	.L43
 174:Core/Src/NRF24L01.c ****     }
 694              		.loc 1 174 7 is_stmt 1 view .LVU156
 695 00b6 0246     		mov	r2, r0
 696 00b8 3146     		mov	r1, r6
 697 00ba 6120     		movs	r0, #97
 698              	.LVL78:
 174:Core/Src/NRF24L01.c ****     }
 699              		.loc 1 174 7 is_stmt 0 view .LVU157
 700 00bc FFF7FEFF 		bl	NRF24L01_Read_Buf
 701              	.LVL79:
 702              	.L44:
 181:Core/Src/NRF24L01.c ****     return RX_OK;
 703              		.loc 1 181 5 is_stmt 1 view .LVU158
 704 00c0 0A48     		ldr	r0, .L49+24
 705 00c2 FFF7FEFF 		bl	puts
 706              	.LVL80:
 182:Core/Src/NRF24L01.c ****   }
 707              		.loc 1 182 5 view .LVU159
 182:Core/Src/NRF24L01.c ****   }
 708              		.loc 1 182 12 is_stmt 0 view .LVU160
 709 00c6 4020     		movs	r0, #64
 710 00c8 CBE7     		b	.L38
 711              	.LVL81:
 712              	.L43:
 178:Core/Src/NRF24L01.c ****       NRF24L01_Write_Reg(FLUSH_RX,0xff);
 713              		.loc 1 178 7 is_stmt 1 view .LVU161
 179:Core/Src/NRF24L01.c ****     }
 714              		.loc 1 179 7 view .LVU162
 715 00ca FF21     		movs	r1, #255
 716 00cc E220     		movs	r0, #226
 717 00ce FFF7FEFF 		bl	NRF24L01_Write_Reg
ARM GAS  C:\Users\Kiana\AppData\Local\Temp\cc18u8J1.s 			page 18


 718              	.LVL82:
 719 00d2 F5E7     		b	.L44
 720              	.L50:
 721              		.align	2
 722              	.L49:
 723 00d4 00040240 		.word	1073873920
 724 00d8 00000240 		.word	1073872896
 725 00dc 48000000 		.word	.LC5
 726 00e0 00000000 		.word	.LC1
 727 00e4 14000000 		.word	.LC2
 728 00e8 28000000 		.word	.LC3
 729 00ec 38000000 		.word	.LC4
 730              	.LBE3:
 731              		.cfi_endproc
 732              	.LFE139:
 734              		.section	.text.NRF24L01_PacketAckData,"ax",%progbits
 735              		.align	1
 736              		.global	NRF24L01_PacketAckData
 737              		.syntax unified
 738              		.thumb
 739              		.thumb_func
 740              		.fpu fpv4-sp-d16
 742              	NRF24L01_PacketAckData:
 743              	.LVL83:
 744              	.LFB140:
 188:Core/Src/NRF24L01.c **** 
 189:Core/Src/NRF24L01.c **** /**
 190:Core/Src/NRF24L01.c ****  * å‡½æ•°åŠŸèƒ½:å‘é€æ•°æ®åŒ…ï¼Œç”¨äºå‘é€æ¨¡å¼
 191:Core/Src/NRF24L01.c ****  * 
 192:Core/Src/NRF24L01.c ****  * 
 193:Core/Src/NRF24L01.c ****  */
 194:Core/Src/NRF24L01.c **** void NRF24L01_PacketAckData(uint8_t* pBuf,uint8_t len)
 195:Core/Src/NRF24L01.c **** {
 745              		.loc 1 195 1 view -0
 746              		.cfi_startproc
 747              		@ args = 0, pretend = 0, frame = 0
 748              		@ frame_needed = 0, uses_anonymous_args = 0
 749              		.loc 1 195 1 is_stmt 0 view .LVU164
 750 0000 70B5     		push	{r4, r5, r6, lr}
 751              	.LCFI12:
 752              		.cfi_def_cfa_offset 16
 753              		.cfi_offset 4, -16
 754              		.cfi_offset 5, -12
 755              		.cfi_offset 6, -8
 756              		.cfi_offset 14, -4
 757 0002 0446     		mov	r4, r0
 758 0004 0D46     		mov	r5, r1
 196:Core/Src/NRF24L01.c **** 	NRF24L01_CE_LOW();	
 759              		.loc 1 196 2 is_stmt 1 view .LVU165
 760 0006 094E     		ldr	r6, .L53
 761 0008 0022     		movs	r2, #0
 762 000a 4FF48061 		mov	r1, #1024
 763              	.LVL84:
 764              		.loc 1 196 2 is_stmt 0 view .LVU166
 765 000e 3046     		mov	r0, r6
 766              	.LVL85:
 767              		.loc 1 196 2 view .LVU167
ARM GAS  C:\Users\Kiana\AppData\Local\Temp\cc18u8J1.s 			page 19


 768 0010 FFF7FEFF 		bl	HAL_GPIO_WritePin
 769              	.LVL86:
 197:Core/Src/NRF24L01.c **** 	NRF24L01_Write_Buf(W_ACK_PAYLOAD,pBuf,len);
 770              		.loc 1 197 2 is_stmt 1 view .LVU168
 771 0014 2A46     		mov	r2, r5
 772 0016 2146     		mov	r1, r4
 773 0018 A820     		movs	r0, #168
 774 001a FFF7FEFF 		bl	NRF24L01_Write_Buf
 775              	.LVL87:
 198:Core/Src/NRF24L01.c **** 	NRF24L01_CE_HIGH();	
 776              		.loc 1 198 2 view .LVU169
 777 001e 0122     		movs	r2, #1
 778 0020 4FF48061 		mov	r1, #1024
 779 0024 3046     		mov	r0, r6
 780 0026 FFF7FEFF 		bl	HAL_GPIO_WritePin
 781              	.LVL88:
 199:Core/Src/NRF24L01.c **** }
 782              		.loc 1 199 1 is_stmt 0 view .LVU170
 783 002a 70BD     		pop	{r4, r5, r6, pc}
 784              	.LVL89:
 785              	.L54:
 786              		.loc 1 199 1 view .LVU171
 787              		.align	2
 788              	.L53:
 789 002c 00040240 		.word	1073873920
 790              		.cfi_endproc
 791              	.LFE140:
 793              		.section	.text.NRF24L01_RxPacket,"ax",%progbits
 794              		.align	1
 795              		.global	NRF24L01_RxPacket
 796              		.syntax unified
 797              		.thumb
 798              		.thumb_func
 799              		.fpu fpv4-sp-d16
 801              	NRF24L01_RxPacket:
 802              	.LVL90:
 803              	.LFB141:
 200:Core/Src/NRF24L01.c **** 
 201:Core/Src/NRF24L01.c **** /**
 202:Core/Src/NRF24L01.c ****   * å‡½æ•°åŠŸèƒ½:å¯åŠ¨NRF24L01æ¥æ”¶ä¸€æ¬¡æ•°æ®
 203:Core/Src/NRF24L01.c ****   * è¾“å…¥å‚æ•°: æ— 
 204:Core/Src/NRF24L01.c ****   * è¿” å› å€¼: æ— 
 205:Core/Src/NRF24L01.c ****   * è¯´    æ˜ï¼šæ— 
 206:Core/Src/NRF24L01.c ****   *           
 207:Core/Src/NRF24L01.c ****   */ 
 208:Core/Src/NRF24L01.c **** uint8_t NRF24L01_RxPacket(uint8_t *rxbuf)
 209:Core/Src/NRF24L01.c **** {
 804              		.loc 1 209 1 is_stmt 1 view -0
 805              		.cfi_startproc
 806              		@ args = 0, pretend = 0, frame = 0
 807              		@ frame_needed = 0, uses_anonymous_args = 0
 808              		.loc 1 209 1 is_stmt 0 view .LVU173
 809 0000 38B5     		push	{r3, r4, r5, lr}
 810              	.LCFI13:
 811              		.cfi_def_cfa_offset 16
 812              		.cfi_offset 3, -16
 813              		.cfi_offset 4, -12
ARM GAS  C:\Users\Kiana\AppData\Local\Temp\cc18u8J1.s 			page 20


 814              		.cfi_offset 5, -8
 815              		.cfi_offset 14, -4
 816 0002 0546     		mov	r5, r0
 210:Core/Src/NRF24L01.c **** 	uint8_t sta;		    							   
 817              		.loc 1 210 2 is_stmt 1 view .LVU174
 211:Core/Src/NRF24L01.c **** 	sta=NRF24L01_Read_Reg(STATUS);  //è¯»å–çŠ¶æ€å¯„å­˜å™¨çš„å€¼    	 
 818              		.loc 1 211 2 view .LVU175
 819              		.loc 1 211 6 is_stmt 0 view .LVU176
 820 0004 0720     		movs	r0, #7
 821              	.LVL91:
 822              		.loc 1 211 6 view .LVU177
 823 0006 FFF7FEFF 		bl	NRF24L01_Read_Reg
 824              	.LVL92:
 825 000a 0446     		mov	r4, r0
 826              	.LVL93:
 212:Core/Src/NRF24L01.c **** 	NRF24L01_Write_Reg(NRF_WRITE_REG+STATUS,sta); //æ¸…é™¤TX_DSæˆ–MAX_RTä¸­æ–­æ ‡å¿—
 827              		.loc 1 212 2 is_stmt 1 view .LVU178
 828 000c 0146     		mov	r1, r0
 829 000e 2720     		movs	r0, #39
 830              	.LVL94:
 831              		.loc 1 212 2 is_stmt 0 view .LVU179
 832 0010 FFF7FEFF 		bl	NRF24L01_Write_Reg
 833              	.LVL95:
 213:Core/Src/NRF24L01.c **** 	if(sta&RX_OK)//æ¥æ”¶åˆ°æ•°æ®
 834              		.loc 1 213 2 is_stmt 1 view .LVU180
 835              		.loc 1 213 4 is_stmt 0 view .LVU181
 836 0014 14F0400F 		tst	r4, #64
 837 0018 01D1     		bne	.L59
 214:Core/Src/NRF24L01.c **** 	{
 215:Core/Src/NRF24L01.c **** 		NRF24L01_Read_Buf(RD_RX_PLOAD,rxbuf,RX_PLOAD_WIDTH);//è¯»å–æ•°æ®
 216:Core/Src/NRF24L01.c **** 		NRF24L01_Write_Reg(FLUSH_RX,0xff);//æ¸…é™¤RX FIFOå¯„å­˜å™¨ 
 217:Core/Src/NRF24L01.c **** 		return 0; 
 218:Core/Src/NRF24L01.c **** 	}	
 219:Core/Src/NRF24L01.c **** 	return 1;//æ²¡æ”¶åˆ°ä»»ä½•æ•°æ®
 838              		.loc 1 219 9 view .LVU182
 839 001a 0120     		movs	r0, #1
 840              	.L56:
 220:Core/Src/NRF24L01.c **** }					    
 841              		.loc 1 220 1 view .LVU183
 842 001c 38BD     		pop	{r3, r4, r5, pc}
 843              	.LVL96:
 844              	.L59:
 215:Core/Src/NRF24L01.c **** 		NRF24L01_Write_Reg(FLUSH_RX,0xff);//æ¸…é™¤RX FIFOå¯„å­˜å™¨ 
 845              		.loc 1 215 3 is_stmt 1 view .LVU184
 846 001e 2022     		movs	r2, #32
 847 0020 2946     		mov	r1, r5
 848 0022 6120     		movs	r0, #97
 849 0024 FFF7FEFF 		bl	NRF24L01_Read_Buf
 850              	.LVL97:
 216:Core/Src/NRF24L01.c **** 		return 0; 
 851              		.loc 1 216 3 view .LVU185
 852 0028 FF21     		movs	r1, #255
 853 002a E220     		movs	r0, #226
 854 002c FFF7FEFF 		bl	NRF24L01_Write_Reg
 855              	.LVL98:
 217:Core/Src/NRF24L01.c **** 	}	
 856              		.loc 1 217 3 view .LVU186
ARM GAS  C:\Users\Kiana\AppData\Local\Temp\cc18u8J1.s 			page 21


 217:Core/Src/NRF24L01.c **** 	}	
 857              		.loc 1 217 10 is_stmt 0 view .LVU187
 858 0030 0020     		movs	r0, #0
 859 0032 F3E7     		b	.L56
 860              		.cfi_endproc
 861              	.LFE141:
 863              		.section	.text.NRF24L01_RX_Mode,"ax",%progbits
 864              		.align	1
 865              		.global	NRF24L01_RX_Mode
 866              		.syntax unified
 867              		.thumb
 868              		.thumb_func
 869              		.fpu fpv4-sp-d16
 871              	NRF24L01_RX_Mode:
 872              	.LFB142:
 221:Core/Src/NRF24L01.c **** 
 222:Core/Src/NRF24L01.c **** /**
 223:Core/Src/NRF24L01.c ****   * å‡½æ•°åŠŸèƒ½: è¯¥å‡½æ•°åˆå§‹åŒ–NRF24L01åˆ°RXæ¨¡å¼
 224:Core/Src/NRF24L01.c ****   * è¾“å…¥å‚æ•°: æ— 
 225:Core/Src/NRF24L01.c ****   * è¿” å› å€¼: æ— 
 226:Core/Src/NRF24L01.c ****   * è¯´    æ˜ï¼šæ— 
 227:Core/Src/NRF24L01.c ****   *           
 228:Core/Src/NRF24L01.c ****   */ 
 229:Core/Src/NRF24L01.c **** void NRF24L01_RX_Mode(void)
 230:Core/Src/NRF24L01.c **** {
 873              		.loc 1 230 1 is_stmt 1 view -0
 874              		.cfi_startproc
 875              		@ args = 0, pretend = 0, frame = 0
 876              		@ frame_needed = 0, uses_anonymous_args = 0
 877 0000 10B5     		push	{r4, lr}
 878              	.LCFI14:
 879              		.cfi_def_cfa_offset 8
 880              		.cfi_offset 4, -8
 881              		.cfi_offset 14, -4
 231:Core/Src/NRF24L01.c **** 	NRF24L01_CE_LOW();	  
 882              		.loc 1 231 2 view .LVU189
 883 0002 174C     		ldr	r4, .L62
 884 0004 0022     		movs	r2, #0
 885 0006 4FF48061 		mov	r1, #1024
 886 000a 2046     		mov	r0, r4
 887 000c FFF7FEFF 		bl	HAL_GPIO_WritePin
 888              	.LVL99:
 232:Core/Src/NRF24L01.c ****   NRF24L01_Write_Reg(NRF_WRITE_REG+CONFIG, 0x0F);//é…ç½®åŸºæœ¬å·¥ä½œæ¨¡å¼çš„å‚æ•°;PWR_UP,EN_CRC,
 889              		.loc 1 232 3 view .LVU190
 890 0010 0F21     		movs	r1, #15
 891 0012 2020     		movs	r0, #32
 892 0014 FFF7FEFF 		bl	NRF24L01_Write_Reg
 893              	.LVL100:
 233:Core/Src/NRF24L01.c ****   NRF24L01_Write_Reg(NRF_WRITE_REG+EN_AA,0x01);    //ä½¿èƒ½é€šé“0çš„è‡ªåŠ¨åº”ç­”    
 894              		.loc 1 233 3 view .LVU191
 895 0018 0121     		movs	r1, #1
 896 001a 2120     		movs	r0, #33
 897 001c FFF7FEFF 		bl	NRF24L01_Write_Reg
 898              	.LVL101:
 234:Core/Src/NRF24L01.c ****   NRF24L01_Write_Reg(NRF_WRITE_REG+EN_RXADDR,0x01);//ä½¿èƒ½é€šé“0çš„æ¥æ”¶åœ°å€  	 
 899              		.loc 1 234 3 view .LVU192
 900 0020 0121     		movs	r1, #1
ARM GAS  C:\Users\Kiana\AppData\Local\Temp\cc18u8J1.s 			page 22


 901 0022 2220     		movs	r0, #34
 902 0024 FFF7FEFF 		bl	NRF24L01_Write_Reg
 903              	.LVL102:
 235:Core/Src/NRF24L01.c ****   NRF24L01_Write_Reg(NRF_WRITE_REG+RF_CH,40);	     //è®¾ç½®RFé€šä¿¡é¢‘ç‡		  
 904              		.loc 1 235 3 view .LVU193
 905 0028 2821     		movs	r1, #40
 906 002a 2520     		movs	r0, #37
 907 002c FFF7FEFF 		bl	NRF24L01_Write_Reg
 908              	.LVL103:
 236:Core/Src/NRF24L01.c ****   NRF24L01_Write_Reg(NRF_WRITE_REG+RF_SETUP,0x0f);//è®¾ç½®TXå‘å°„å‚æ•°,0dbå¢ç›Š,2Mbps,ä½å™ªå£°å
 909              		.loc 1 236 3 view .LVU194
 910 0030 0F21     		movs	r1, #15
 911 0032 2620     		movs	r0, #38
 912 0034 FFF7FEFF 		bl	NRF24L01_Write_Reg
 913              	.LVL104:
 237:Core/Src/NRF24L01.c ****   
 238:Core/Src/NRF24L01.c ****   
 239:Core/Src/NRF24L01.c ****   //NRF24L01_Write_Reg(NRF_WRITE_REG+DYNPD,0x01);
 240:Core/Src/NRF24L01.c ****   //NRF24L01_Write_Reg(NRF_WRITE_REG+FEATURE,0x07);
 241:Core/Src/NRF24L01.c ****   
 242:Core/Src/NRF24L01.c ****   
 243:Core/Src/NRF24L01.c ****   NRF24L01_Write_Reg(NRF_WRITE_REG+RX_PW_P0,RX_PLOAD_WIDTH);//é€‰æ‹©é€šé“0çš„æœ‰æ•ˆæ•°æ®å®½åº¦ 	 
 914              		.loc 1 243 3 view .LVU195
 915 0038 2021     		movs	r1, #32
 916 003a 3120     		movs	r0, #49
 917 003c FFF7FEFF 		bl	NRF24L01_Write_Reg
 918              	.LVL105:
 244:Core/Src/NRF24L01.c ****     
 245:Core/Src/NRF24L01.c ****   NRF24L01_Write_Buf(NRF_WRITE_REG+RX_ADDR_P0,(uint8_t*)RX_ADDRESS,RX_ADR_WIDTH);//å†™RXèŠ‚ç‚¹åœ°å
 919              		.loc 1 245 3 view .LVU196
 920 0040 0522     		movs	r2, #5
 921 0042 0849     		ldr	r1, .L62+4
 922 0044 2A20     		movs	r0, #42
 923 0046 FFF7FEFF 		bl	NRF24L01_Write_Buf
 924              	.LVL106:
 246:Core/Src/NRF24L01.c **** 	
 247:Core/Src/NRF24L01.c ****   NRF24L01_CE_HIGH(); //CEä¸ºé«˜,è¿›å…¥æ¥æ”¶æ¨¡å¼ 
 925              		.loc 1 247 3 view .LVU197
 926 004a 0122     		movs	r2, #1
 927 004c 4FF48061 		mov	r1, #1024
 928 0050 2046     		mov	r0, r4
 929 0052 FFF7FEFF 		bl	HAL_GPIO_WritePin
 930              	.LVL107:
 248:Core/Src/NRF24L01.c ****   HAL_Delay(1);
 931              		.loc 1 248 3 view .LVU198
 932 0056 0120     		movs	r0, #1
 933 0058 FFF7FEFF 		bl	HAL_Delay
 934              	.LVL108:
 249:Core/Src/NRF24L01.c **** }						 
 935              		.loc 1 249 1 is_stmt 0 view .LVU199
 936 005c 10BD     		pop	{r4, pc}
 937              	.L63:
 938 005e 00BF     		.align	2
 939              	.L62:
 940 0060 00040240 		.word	1073873920
 941 0064 00000000 		.word	.LANCHOR0
 942              		.cfi_endproc
ARM GAS  C:\Users\Kiana\AppData\Local\Temp\cc18u8J1.s 			page 23


 943              	.LFE142:
 945              		.section	.text.NRF24L01_TX_Mode,"ax",%progbits
 946              		.align	1
 947              		.global	NRF24L01_TX_Mode
 948              		.syntax unified
 949              		.thumb
 950              		.thumb_func
 951              		.fpu fpv4-sp-d16
 953              	NRF24L01_TX_Mode:
 954              	.LFB143:
 250:Core/Src/NRF24L01.c **** 
 251:Core/Src/NRF24L01.c **** /**
 252:Core/Src/NRF24L01.c ****   * å‡½æ•°åŠŸèƒ½: è¯¥å‡½æ•°åˆå§‹åŒ–NRF24L01åˆ°TXæ¨¡å¼
 253:Core/Src/NRF24L01.c ****   * è¾“å…¥å‚æ•°: æ— 
 254:Core/Src/NRF24L01.c ****   * è¿” å› å€¼: æ— 
 255:Core/Src/NRF24L01.c ****   * è¯´    æ˜ï¼šæ— 
 256:Core/Src/NRF24L01.c ****   *           
 257:Core/Src/NRF24L01.c ****   */ 
 258:Core/Src/NRF24L01.c **** void NRF24L01_TX_Mode(void)
 259:Core/Src/NRF24L01.c **** {														 
 955              		.loc 1 259 1 is_stmt 1 view -0
 956              		.cfi_startproc
 957              		@ args = 0, pretend = 0, frame = 0
 958              		@ frame_needed = 0, uses_anonymous_args = 0
 959 0000 10B5     		push	{r4, lr}
 960              	.LCFI15:
 961              		.cfi_def_cfa_offset 8
 962              		.cfi_offset 4, -8
 963              		.cfi_offset 14, -4
 260:Core/Src/NRF24L01.c **** 	NRF24L01_CE_LOW();	    
 964              		.loc 1 260 2 view .LVU201
 965 0002 194C     		ldr	r4, .L66
 966 0004 0022     		movs	r2, #0
 967 0006 4FF48061 		mov	r1, #1024
 968 000a 2046     		mov	r0, r4
 969 000c FFF7FEFF 		bl	HAL_GPIO_WritePin
 970              	.LVL109:
 261:Core/Src/NRF24L01.c ****   NRF24L01_Write_Buf(NRF_WRITE_REG+TX_ADDR,(uint8_t*)TX_ADDRESS,TX_ADR_WIDTH);//å†™TXèŠ‚ç‚¹åœ°å€ 
 971              		.loc 1 261 3 view .LVU202
 972 0010 0522     		movs	r2, #5
 973 0012 1649     		ldr	r1, .L66+4
 974 0014 3020     		movs	r0, #48
 975 0016 FFF7FEFF 		bl	NRF24L01_Write_Buf
 976              	.LVL110:
 262:Core/Src/NRF24L01.c ****   NRF24L01_Write_Buf(NRF_WRITE_REG+RX_ADDR_P0,(uint8_t*)RX_ADDRESS,RX_ADR_WIDTH); //è®¾ç½®TXèŠ‚ç‚¹å
 977              		.loc 1 262 3 view .LVU203
 978 001a 0522     		movs	r2, #5
 979 001c 1449     		ldr	r1, .L66+8
 980 001e 2A20     		movs	r0, #42
 981 0020 FFF7FEFF 		bl	NRF24L01_Write_Buf
 982              	.LVL111:
 263:Core/Src/NRF24L01.c **** 
 264:Core/Src/NRF24L01.c ****   NRF24L01_Write_Reg(NRF_WRITE_REG+EN_AA,0x01);     //ä½¿èƒ½é€šé“0çš„è‡ªåŠ¨åº”ç­”    
 983              		.loc 1 264 3 view .LVU204
 984 0024 0121     		movs	r1, #1
 985 0026 2120     		movs	r0, #33
 986 0028 FFF7FEFF 		bl	NRF24L01_Write_Reg
ARM GAS  C:\Users\Kiana\AppData\Local\Temp\cc18u8J1.s 			page 24


 987              	.LVL112:
 265:Core/Src/NRF24L01.c ****   NRF24L01_Write_Reg(NRF_WRITE_REG+EN_RXADDR,0x01); //ä½¿èƒ½é€šé“0çš„æ¥æ”¶åœ°å€  
 988              		.loc 1 265 3 view .LVU205
 989 002c 0121     		movs	r1, #1
 990 002e 2220     		movs	r0, #34
 991 0030 FFF7FEFF 		bl	NRF24L01_Write_Reg
 992              	.LVL113:
 266:Core/Src/NRF24L01.c ****   NRF24L01_Write_Reg(NRF_WRITE_REG+SETUP_RETR,0xff);//è®¾ç½®è‡ªåŠ¨é‡å‘é—´éš”æ—¶é—´:4000us + 86us;
 993              		.loc 1 266 3 view .LVU206
 994 0034 FF21     		movs	r1, #255
 995 0036 2420     		movs	r0, #36
 996 0038 FFF7FEFF 		bl	NRF24L01_Write_Reg
 997              	.LVL114:
 267:Core/Src/NRF24L01.c ****   NRF24L01_Write_Reg(NRF_WRITE_REG+RF_CH,40);       //è®¾ç½®RFé€šé“ä¸º40
 998              		.loc 1 267 3 view .LVU207
 999 003c 2821     		movs	r1, #40
 1000 003e 2520     		movs	r0, #37
 1001 0040 FFF7FEFF 		bl	NRF24L01_Write_Reg
 1002              	.LVL115:
 268:Core/Src/NRF24L01.c ****   NRF24L01_Write_Reg(NRF_WRITE_REG+RF_SETUP,0x0f);  //è®¾ç½®TXå‘å°„å‚æ•°,0dbå¢ç›Š,2Mbps,ä½å™ªå£
 1003              		.loc 1 268 3 view .LVU208
 1004 0044 0F21     		movs	r1, #15
 1005 0046 2620     		movs	r0, #38
 1006 0048 FFF7FEFF 		bl	NRF24L01_Write_Reg
 1007              	.LVL116:
 269:Core/Src/NRF24L01.c ****   NRF24L01_Write_Reg(NRF_WRITE_REG+CONFIG,0x0e);    //é…ç½®åŸºæœ¬å·¥ä½œæ¨¡å¼çš„å‚æ•°;PWR_UP,EN_C
 1008              		.loc 1 269 3 view .LVU209
 1009 004c 0E21     		movs	r1, #14
 1010 004e 2020     		movs	r0, #32
 1011 0050 FFF7FEFF 		bl	NRF24L01_Write_Reg
 1012              	.LVL117:
 270:Core/Src/NRF24L01.c **** 	
 271:Core/Src/NRF24L01.c ****   
 272:Core/Src/NRF24L01.c ****   //NRF24L01_Write_Reg(NRF_WRITE_REG+DYNPD,0x01);
 273:Core/Src/NRF24L01.c ****   //NRF24L01_Write_Reg(NRF_WRITE_REG+FEATURE,0x07);
 274:Core/Src/NRF24L01.c ****   
 275:Core/Src/NRF24L01.c **** 
 276:Core/Src/NRF24L01.c ****   NRF24L01_CE_HIGH();//CEä¸ºé«˜,10usåå¯åŠ¨å‘é€
 1013              		.loc 1 276 3 view .LVU210
 1014 0054 0122     		movs	r2, #1
 1015 0056 4FF48061 		mov	r1, #1024
 1016 005a 2046     		mov	r0, r4
 1017 005c FFF7FEFF 		bl	HAL_GPIO_WritePin
 1018              	.LVL118:
 277:Core/Src/NRF24L01.c ****   HAL_Delay(1);
 1019              		.loc 1 277 3 view .LVU211
 1020 0060 0120     		movs	r0, #1
 1021 0062 FFF7FEFF 		bl	HAL_Delay
 1022              	.LVL119:
 278:Core/Src/NRF24L01.c **** }
 1023              		.loc 1 278 1 is_stmt 0 view .LVU212
 1024 0066 10BD     		pop	{r4, pc}
 1025              	.L67:
 1026              		.align	2
 1027              	.L66:
 1028 0068 00040240 		.word	1073873920
 1029 006c 00000000 		.word	.LANCHOR1
ARM GAS  C:\Users\Kiana\AppData\Local\Temp\cc18u8J1.s 			page 25


 1030 0070 00000000 		.word	.LANCHOR0
 1031              		.cfi_endproc
 1032              	.LFE143:
 1034              		.global	RX_ADDRESS
 1035              		.global	TX_ADDRESS
 1036              		.section	.rodata.RX_ADDRESS,"a"
 1037              		.align	2
 1038              		.set	.LANCHOR0,. + 0
 1041              	RX_ADDRESS:
 1042 0000 B0431010 		.ascii	"\260C\020\020\001"
 1042      01
 1043              		.section	.rodata.TX_ADDRESS,"a"
 1044              		.align	2
 1045              		.set	.LANCHOR1,. + 0
 1048              	TX_ADDRESS:
 1049 0000 B0431010 		.ascii	"\260C\020\020\001"
 1049      01
 1050              		.text
 1051              	.Letext0:
 1052              		.file 2 "d:\\vs_code_stm32\\9 2019-q4-major\\arm-none-eabi\\include\\machine\\_default_types.h"
 1053              		.file 3 "d:\\vs_code_stm32\\9 2019-q4-major\\arm-none-eabi\\include\\sys\\_stdint.h"
 1054              		.file 4 "Drivers/CMSIS/Include/core_cm4.h"
 1055              		.file 5 "Drivers/CMSIS/Device/ST/STM32F4xx/Include/system_stm32f4xx.h"
 1056              		.file 6 "Drivers/CMSIS/Device/ST/STM32F4xx/Include/stm32f401xc.h"
 1057              		.file 7 "Drivers/STM32F4xx_HAL_Driver/Inc/stm32f4xx_hal_def.h"
 1058              		.file 8 "Drivers/STM32F4xx_HAL_Driver/Inc/stm32f4xx_hal_gpio.h"
 1059              		.file 9 "Drivers/STM32F4xx_HAL_Driver/Inc/stm32f4xx_hal_dma.h"
 1060              		.file 10 "Drivers/STM32F4xx_HAL_Driver/Inc/stm32f4xx_hal_spi.h"
 1061              		.file 11 "Drivers/STM32F4xx_HAL_Driver/Inc/stm32f4xx_hal_uart.h"
 1062              		.file 12 "Drivers/STM32F4xx_HAL_Driver/Inc/stm32f4xx_hal.h"
 1063              		.file 13 "Core/Inc/usart.h"
 1064              		.file 14 "d:\\vs_code_stm32\\9 2019-q4-major\\arm-none-eabi\\include\\sys\\lock.h"
 1065              		.file 15 "d:\\vs_code_stm32\\9 2019-q4-major\\arm-none-eabi\\include\\sys\\_types.h"
 1066              		.file 16 "d:\\vs_code_stm32\\9 2019-q4-major\\lib\\gcc\\arm-none-eabi\\9.2.1\\include\\stddef.h"
 1067              		.file 17 "d:\\vs_code_stm32\\9 2019-q4-major\\arm-none-eabi\\include\\sys\\reent.h"
 1068              		.file 18 "Core/Inc/NRF24L01.h"
 1069              		.file 19 "d:\\vs_code_stm32\\9 2019-q4-major\\arm-none-eabi\\include\\stdio.h"
 1070              		.file 20 "<built-in>"
ARM GAS  C:\Users\Kiana\AppData\Local\Temp\cc18u8J1.s 			page 26

