ARM GAS  C:\Users\Kiana\AppData\Local\Temp\ccsHba3y.s 			page 1


   1              		.cpu cortex-m4
   2              		.eabi_attribute 27, 1
   3              		.eabi_attribute 28, 1
   4              		.eabi_attribute 20, 1
   5              		.eabi_attribute 21, 1
   6              		.eabi_attribute 23, 3
   7              		.eabi_attribute 24, 1
   8              		.eabi_attribute 25, 1
   9              		.eabi_attribute 26, 1
  10              		.eabi_attribute 30, 1
  11              		.eabi_attribute 34, 1
  12              		.eabi_attribute 18, 4
  13              		.file	"flash.c"
  14              		.text
  15              	.Ltext0:
  16              		.cfi_sections	.debug_frame
  17              		.section	.rodata.FlashRead.str1.4,"aMS",%progbits,1
  18              		.align	2
  19              	.LC0:
  20 0000 52656164 		.ascii	"Read Successfully!\015\000"
  20      20537563 
  20      63657373 
  20      66756C6C 
  20      79210D00 
  21              		.section	.text.FlashRead,"ax",%progbits
  22              		.align	1
  23              		.global	FlashRead
  24              		.arch armv7e-m
  25              		.syntax unified
  26              		.thumb
  27              		.thumb_func
  28              		.fpu fpv4-sp-d16
  30              	FlashRead:
  31              	.LVL0:
  32              	.LFB133:
  33              		.file 1 "Core/Src/flash.c"
   1:Core/Src/flash.c **** #include "flash.h"
   2:Core/Src/flash.c **** 
   3:Core/Src/flash.c **** 
   4:Core/Src/flash.c **** void FlashRead(uint32_t address, uint8_t* buffer, uint32_t size)
   5:Core/Src/flash.c **** {
  34              		.loc 1 5 1 view -0
  35              		.cfi_startproc
  36              		@ args = 0, pretend = 0, frame = 0
  37              		@ frame_needed = 0, uses_anonymous_args = 0
  38              		.loc 1 5 1 is_stmt 0 view .LVU1
  39 0000 10B5     		push	{r4, lr}
  40              	.LCFI0:
  41              		.cfi_def_cfa_offset 8
  42              		.cfi_offset 4, -8
  43              		.cfi_offset 14, -4
   6:Core/Src/flash.c ****     uint8_t i;
  44              		.loc 1 6 5 is_stmt 1 view .LVU2
   7:Core/Src/flash.c ****     for(i = 0;i < size;i++)
  45              		.loc 1 7 5 view .LVU3
  46              	.LVL1:
  47              		.loc 1 7 11 is_stmt 0 view .LVU4
ARM GAS  C:\Users\Kiana\AppData\Local\Temp\ccsHba3y.s 			page 2


  48 0002 0023     		movs	r3, #0
  49              	.LVL2:
  50              	.L2:
  51              		.loc 1 7 15 is_stmt 1 discriminator 1 view .LVU5
  52              		.loc 1 7 5 is_stmt 0 discriminator 1 view .LVU6
  53 0004 9342     		cmp	r3, r2
  54 0006 04D2     		bcs	.L5
   8:Core/Src/flash.c ****     {
   9:Core/Src/flash.c ****         buffer[i] = *(volatile uint8_t*) (address + i);
  55              		.loc 1 9 9 is_stmt 1 discriminator 3 view .LVU7
  56              		.loc 1 9 21 is_stmt 0 discriminator 3 view .LVU8
  57 0008 1C5C     		ldrb	r4, [r3, r0]	@ zero_extendqisi2
  58              		.loc 1 9 19 discriminator 3 view .LVU9
  59 000a CC54     		strb	r4, [r1, r3]
   7:Core/Src/flash.c ****     for(i = 0;i < size;i++)
  60              		.loc 1 7 24 is_stmt 1 discriminator 3 view .LVU10
   7:Core/Src/flash.c ****     for(i = 0;i < size;i++)
  61              		.loc 1 7 25 is_stmt 0 discriminator 3 view .LVU11
  62 000c 0133     		adds	r3, r3, #1
  63              	.LVL3:
   7:Core/Src/flash.c ****     for(i = 0;i < size;i++)
  64              		.loc 1 7 25 discriminator 3 view .LVU12
  65 000e DBB2     		uxtb	r3, r3
  66              	.LVL4:
   7:Core/Src/flash.c ****     for(i = 0;i < size;i++)
  67              		.loc 1 7 25 discriminator 3 view .LVU13
  68 0010 F8E7     		b	.L2
  69              	.L5:
  10:Core/Src/flash.c ****     }
  11:Core/Src/flash.c ****     printf("Read Successfully!\r\n");
  70              		.loc 1 11 5 is_stmt 1 view .LVU14
  71 0012 0248     		ldr	r0, .L6
  72              	.LVL5:
  73              		.loc 1 11 5 is_stmt 0 view .LVU15
  74 0014 FFF7FEFF 		bl	puts
  75              	.LVL6:
  12:Core/Src/flash.c **** }
  76              		.loc 1 12 1 view .LVU16
  77 0018 10BD     		pop	{r4, pc}
  78              	.L7:
  79 001a 00BF     		.align	2
  80              	.L6:
  81 001c 00000000 		.word	.LC0
  82              		.cfi_endproc
  83              	.LFE133:
  85              		.section	.rodata.FlashEraseSector5.str1.4,"aMS",%progbits,1
  86              		.align	2
  87              	.LC1:
  88 0000 45726173 		.ascii	"Erase Fail!\015\000"
  88      65204661 
  88      696C210D 
  88      00
  89 000d 000000   		.align	2
  90              	.LC2:
  91 0010 45726173 		.ascii	"Erase Success!\015\000"
  91      65205375 
  91      63636573 
ARM GAS  C:\Users\Kiana\AppData\Local\Temp\ccsHba3y.s 			page 3


  91      73210D00 
  92              		.section	.text.FlashEraseSector5,"ax",%progbits
  93              		.align	1
  94              		.global	FlashEraseSector5
  95              		.syntax unified
  96              		.thumb
  97              		.thumb_func
  98              		.fpu fpv4-sp-d16
 100              	FlashEraseSector5:
 101              	.LFB134:
  13:Core/Src/flash.c **** 
  14:Core/Src/flash.c **** uint8_t FlashEraseSector5()
  15:Core/Src/flash.c **** {
 102              		.loc 1 15 1 is_stmt 1 view -0
 103              		.cfi_startproc
 104              		@ args = 0, pretend = 0, frame = 24
 105              		@ frame_needed = 0, uses_anonymous_args = 0
 106 0000 00B5     		push	{lr}
 107              	.LCFI1:
 108              		.cfi_def_cfa_offset 4
 109              		.cfi_offset 14, -4
 110 0002 87B0     		sub	sp, sp, #28
 111              	.LCFI2:
 112              		.cfi_def_cfa_offset 32
  16:Core/Src/flash.c ****     FLASH_EraseInitTypeDef erase_init;
 113              		.loc 1 16 5 view .LVU18
  17:Core/Src/flash.c ****     HAL_StatusTypeDef      hal_sta;
 114              		.loc 1 17 5 view .LVU19
  18:Core/Src/flash.c ****     uint32_t               sector_error;
 115              		.loc 1 18 5 view .LVU20
  19:Core/Src/flash.c **** 
  20:Core/Src/flash.c ****     erase_init.Banks = FLASH_BANK_1;
 116              		.loc 1 20 5 view .LVU21
 117              		.loc 1 20 22 is_stmt 0 view .LVU22
 118 0004 0123     		movs	r3, #1
 119 0006 0293     		str	r3, [sp, #8]
  21:Core/Src/flash.c ****     erase_init.NbSectors = 1;
 120              		.loc 1 21 5 is_stmt 1 view .LVU23
 121              		.loc 1 21 26 is_stmt 0 view .LVU24
 122 0008 0493     		str	r3, [sp, #16]
  22:Core/Src/flash.c ****     erase_init.Sector = FLASH_SECTOR_5;
 123              		.loc 1 22 5 is_stmt 1 view .LVU25
 124              		.loc 1 22 23 is_stmt 0 view .LVU26
 125 000a 0523     		movs	r3, #5
 126 000c 0393     		str	r3, [sp, #12]
  23:Core/Src/flash.c ****     erase_init.VoltageRange = FLASH_VOLTAGE_RANGE_3;
 127              		.loc 1 23 5 is_stmt 1 view .LVU27
 128              		.loc 1 23 29 is_stmt 0 view .LVU28
 129 000e 0223     		movs	r3, #2
 130 0010 0593     		str	r3, [sp, #20]
  24:Core/Src/flash.c ****     erase_init.TypeErase = FLASH_TYPEERASE_SECTORS;
 131              		.loc 1 24 5 is_stmt 1 view .LVU29
 132              		.loc 1 24 26 is_stmt 0 view .LVU30
 133 0012 0023     		movs	r3, #0
 134 0014 0193     		str	r3, [sp, #4]
  25:Core/Src/flash.c **** 
  26:Core/Src/flash.c ****     hal_sta = HAL_FLASHEx_Erase(&erase_init,&sector_error);
ARM GAS  C:\Users\Kiana\AppData\Local\Temp\ccsHba3y.s 			page 4


 135              		.loc 1 26 5 is_stmt 1 view .LVU31
 136              		.loc 1 26 15 is_stmt 0 view .LVU32
 137 0016 6946     		mov	r1, sp
 138 0018 01A8     		add	r0, sp, #4
 139 001a FFF7FEFF 		bl	HAL_FLASHEx_Erase
 140              	.LVL7:
  27:Core/Src/flash.c **** 
  28:Core/Src/flash.c ****     if(hal_sta != HAL_OK || sector_error != 0xFFFFFFFFU) 
 141              		.loc 1 28 5 is_stmt 1 view .LVU33
 142              		.loc 1 28 7 is_stmt 0 view .LVU34
 143 001e 18B9     		cbnz	r0, .L9
 144              		.loc 1 28 42 discriminator 1 view .LVU35
 145 0020 009B     		ldr	r3, [sp]
 146              		.loc 1 28 26 discriminator 1 view .LVU36
 147 0022 B3F1FF3F 		cmp	r3, #-1
 148 0026 06D0     		beq	.L10
 149              	.L9:
  29:Core/Src/flash.c ****     {
  30:Core/Src/flash.c ****         printf("Erase Fail!\r\n");
 150              		.loc 1 30 9 is_stmt 1 view .LVU37
 151 0028 0548     		ldr	r0, .L13
 152              	.LVL8:
 153              		.loc 1 30 9 is_stmt 0 view .LVU38
 154 002a FFF7FEFF 		bl	puts
 155              	.LVL9:
  31:Core/Src/flash.c ****         return 0;
 156              		.loc 1 31 9 is_stmt 1 view .LVU39
 157              		.loc 1 31 16 is_stmt 0 view .LVU40
 158 002e 0020     		movs	r0, #0
 159              	.L11:
  32:Core/Src/flash.c ****     }
  33:Core/Src/flash.c ****     else 
  34:Core/Src/flash.c ****     {
  35:Core/Src/flash.c ****         printf("Erase Success!\r\n");
  36:Core/Src/flash.c ****         return 1;
  37:Core/Src/flash.c ****     }
  38:Core/Src/flash.c **** }
 160              		.loc 1 38 1 view .LVU41
 161 0030 07B0     		add	sp, sp, #28
 162              	.LCFI3:
 163              		.cfi_remember_state
 164              		.cfi_def_cfa_offset 4
 165              		@ sp needed
 166 0032 5DF804FB 		ldr	pc, [sp], #4
 167              	.LVL10:
 168              	.L10:
 169              	.LCFI4:
 170              		.cfi_restore_state
  35:Core/Src/flash.c ****         return 1;
 171              		.loc 1 35 9 is_stmt 1 view .LVU42
 172 0036 0348     		ldr	r0, .L13+4
 173              	.LVL11:
  35:Core/Src/flash.c ****         return 1;
 174              		.loc 1 35 9 is_stmt 0 view .LVU43
 175 0038 FFF7FEFF 		bl	puts
 176              	.LVL12:
  36:Core/Src/flash.c ****     }
ARM GAS  C:\Users\Kiana\AppData\Local\Temp\ccsHba3y.s 			page 5


 177              		.loc 1 36 9 is_stmt 1 view .LVU44
  36:Core/Src/flash.c ****     }
 178              		.loc 1 36 16 is_stmt 0 view .LVU45
 179 003c 0120     		movs	r0, #1
 180 003e F7E7     		b	.L11
 181              	.L14:
 182              		.align	2
 183              	.L13:
 184 0040 00000000 		.word	.LC1
 185 0044 10000000 		.word	.LC2
 186              		.cfi_endproc
 187              	.LFE134:
 189              		.section	.text.FlashWriteWithoutErase,"ax",%progbits
 190              		.align	1
 191              		.global	FlashWriteWithoutErase
 192              		.syntax unified
 193              		.thumb
 194              		.thumb_func
 195              		.fpu fpv4-sp-d16
 197              	FlashWriteWithoutErase:
 198              	.LVL13:
 199              	.LFB135:
  39:Core/Src/flash.c **** 
  40:Core/Src/flash.c **** uint8_t FlashWriteWithoutErase(uint32_t address, uint8_t* buffer, uint32_t size)
  41:Core/Src/flash.c **** {
 200              		.loc 1 41 1 is_stmt 1 view -0
 201              		.cfi_startproc
 202              		@ args = 0, pretend = 0, frame = 0
 203              		@ frame_needed = 0, uses_anonymous_args = 0
 204              		.loc 1 41 1 is_stmt 0 view .LVU47
 205 0000 F8B5     		push	{r3, r4, r5, r6, r7, lr}
 206              	.LCFI5:
 207              		.cfi_def_cfa_offset 24
 208              		.cfi_offset 3, -24
 209              		.cfi_offset 4, -20
 210              		.cfi_offset 5, -16
 211              		.cfi_offset 6, -12
 212              		.cfi_offset 7, -8
 213              		.cfi_offset 14, -4
 214 0002 0746     		mov	r7, r0
 215 0004 0E46     		mov	r6, r1
 216 0006 1546     		mov	r5, r2
  42:Core/Src/flash.c ****     HAL_StatusTypeDef hal_sta = HAL_OK;
 217              		.loc 1 42 5 is_stmt 1 view .LVU48
 218              	.LVL14:
  43:Core/Src/flash.c **** 	uint32_t          pos = 0;
 219              		.loc 1 43 2 view .LVU49
  44:Core/Src/flash.c **** 
  45:Core/Src/flash.c ****     while((size > pos) && (hal_sta == HAL_OK))
 220              		.loc 1 45 5 view .LVU50
  43:Core/Src/flash.c **** 	uint32_t          pos = 0;
 221              		.loc 1 43 20 is_stmt 0 view .LVU51
 222 0008 0024     		movs	r4, #0
  42:Core/Src/flash.c **** 	uint32_t          pos = 0;
 223              		.loc 1 42 23 view .LVU52
 224 000a 2046     		mov	r0, r4
 225              	.LVL15:
ARM GAS  C:\Users\Kiana\AppData\Local\Temp\ccsHba3y.s 			page 6


 226              	.L16:
 227              		.loc 1 45 10 is_stmt 1 view .LVU53
 228 000c AC42     		cmp	r4, r5
 229 000e 08D2     		bcs	.L17
 230              		.loc 1 45 24 is_stmt 0 discriminator 1 view .LVU54
 231 0010 38B9     		cbnz	r0, .L17
  46:Core/Src/flash.c ****     {
  47:Core/Src/flash.c **** 		hal_sta = HAL_FLASH_Program(FLASH_TYPEPROGRAM_BYTE, address + pos, buffer[pos]);
 232              		.loc 1 47 3 is_stmt 1 view .LVU55
 233              		.loc 1 47 13 is_stmt 0 view .LVU56
 234 0012 325D     		ldrb	r2, [r6, r4]	@ zero_extendqisi2
 235 0014 0023     		movs	r3, #0
 236 0016 E119     		adds	r1, r4, r7
 237 0018 0020     		movs	r0, #0
 238              	.LVL16:
 239              		.loc 1 47 13 view .LVU57
 240 001a FFF7FEFF 		bl	HAL_FLASH_Program
 241              	.LVL17:
  48:Core/Src/flash.c **** 		pos++;
 242              		.loc 1 48 3 is_stmt 1 view .LVU58
 243              		.loc 1 48 6 is_stmt 0 view .LVU59
 244 001e 0134     		adds	r4, r4, #1
 245              	.LVL18:
 246              		.loc 1 48 6 view .LVU60
 247 0020 F4E7     		b	.L16
 248              	.L17:
  49:Core/Src/flash.c **** 	}
  50:Core/Src/flash.c **** 
  51:Core/Src/flash.c **** 	if(hal_sta == HAL_OK) return 1;
 249              		.loc 1 51 2 is_stmt 1 view .LVU61
 250              		.loc 1 51 4 is_stmt 0 view .LVU62
 251 0022 08B9     		cbnz	r0, .L20
 252              		.loc 1 51 31 view .LVU63
 253 0024 0120     		movs	r0, #1
 254              	.LVL19:
 255              	.L19:
  52:Core/Src/flash.c **** 	else return 0;
  53:Core/Src/flash.c **** }
 256              		.loc 1 53 1 view .LVU64
 257 0026 F8BD     		pop	{r3, r4, r5, r6, r7, pc}
 258              	.LVL20:
 259              	.L20:
  52:Core/Src/flash.c **** 	else return 0;
 260              		.loc 1 52 14 view .LVU65
 261 0028 0020     		movs	r0, #0
 262              	.LVL21:
  52:Core/Src/flash.c **** 	else return 0;
 263              		.loc 1 52 14 view .LVU66
 264 002a FCE7     		b	.L19
 265              		.cfi_endproc
 266              	.LFE135:
 268              		.section	.rodata.FlashWrite.str1.4,"aMS",%progbits,1
 269              		.align	2
 270              	.LC3:
 271 0000 57726974 		.ascii	"Write Successfully!\015\000"
 271      65205375 
 271      63636573 
ARM GAS  C:\Users\Kiana\AppData\Local\Temp\ccsHba3y.s 			page 7


 271      7366756C 
 271      6C79210D 
 272              		.section	.text.FlashWrite,"ax",%progbits
 273              		.align	1
 274              		.global	FlashWrite
 275              		.syntax unified
 276              		.thumb
 277              		.thumb_func
 278              		.fpu fpv4-sp-d16
 280              	FlashWrite:
 281              	.LVL22:
 282              	.LFB136:
  54:Core/Src/flash.c **** 
  55:Core/Src/flash.c **** uint8_t FlashWrite(uint32_t address, uint8_t* buffer, uint32_t size)
  56:Core/Src/flash.c **** {
 283              		.loc 1 56 1 is_stmt 1 view -0
 284              		.cfi_startproc
 285              		@ args = 0, pretend = 0, frame = 0
 286              		@ frame_needed = 0, uses_anonymous_args = 0
 287              		.loc 1 56 1 is_stmt 0 view .LVU68
 288 0000 70B5     		push	{r4, r5, r6, lr}
 289              	.LCFI6:
 290              		.cfi_def_cfa_offset 16
 291              		.cfi_offset 4, -16
 292              		.cfi_offset 5, -12
 293              		.cfi_offset 6, -8
 294              		.cfi_offset 14, -4
 295 0002 0446     		mov	r4, r0
 296 0004 0D46     		mov	r5, r1
 297 0006 1646     		mov	r6, r2
  57:Core/Src/flash.c ****     uint8_t write_flag;
 298              		.loc 1 57 5 is_stmt 1 view .LVU69
  58:Core/Src/flash.c ****     
  59:Core/Src/flash.c ****     HAL_FLASH_Unlock();
 299              		.loc 1 59 5 view .LVU70
 300 0008 FFF7FEFF 		bl	HAL_FLASH_Unlock
 301              	.LVL23:
  60:Core/Src/flash.c ****     FlashEraseSector5();
 302              		.loc 1 60 5 view .LVU71
 303 000c FFF7FEFF 		bl	FlashEraseSector5
 304              	.LVL24:
  61:Core/Src/flash.c ****     write_flag = FlashWriteWithoutErase(address,buffer,size);
 305              		.loc 1 61 5 view .LVU72
 306              		.loc 1 61 18 is_stmt 0 view .LVU73
 307 0010 3246     		mov	r2, r6
 308 0012 2946     		mov	r1, r5
 309 0014 2046     		mov	r0, r4
 310 0016 FFF7FEFF 		bl	FlashWriteWithoutErase
 311              	.LVL25:
 312 001a 0446     		mov	r4, r0
 313              	.LVL26:
  62:Core/Src/flash.c ****     HAL_FLASH_Lock();
 314              		.loc 1 62 5 is_stmt 1 view .LVU74
 315 001c FFF7FEFF 		bl	HAL_FLASH_Lock
 316              	.LVL27:
  63:Core/Src/flash.c ****     printf("Write Successfully!\r\n");
 317              		.loc 1 63 5 view .LVU75
ARM GAS  C:\Users\Kiana\AppData\Local\Temp\ccsHba3y.s 			page 8


 318 0020 0248     		ldr	r0, .L24
 319 0022 FFF7FEFF 		bl	puts
 320              	.LVL28:
  64:Core/Src/flash.c **** 
  65:Core/Src/flash.c ****     return write_flag;
 321              		.loc 1 65 5 view .LVU76
  66:Core/Src/flash.c **** }...
 322              		.loc 1 66 1 is_stmt 0 view .LVU77
 323 0026 2046     		mov	r0, r4
 324 0028 70BD     		pop	{r4, r5, r6, pc}
 325              	.LVL29:
 326              	.L25:
 327              		.loc 1 66 1 view .LVU78
 328 002a 00BF     		.align	2
 329              	.L24:
 330 002c 00000000 		.word	.LC3
 331              		.cfi_endproc
 332              	.LFE136:
 334              		.text
 335              	.Letext0:
 336              		.file 2 "d:\\vs_code_stm32\\9 2019-q4-major\\arm-none-eabi\\include\\machine\\_default_types.h"
 337              		.file 3 "d:\\vs_code_stm32\\9 2019-q4-major\\arm-none-eabi\\include\\sys\\_stdint.h"
 338              		.file 4 "Drivers/CMSIS/Include/core_cm4.h"
 339              		.file 5 "Drivers/CMSIS/Device/ST/STM32F4xx/Include/system_stm32f4xx.h"
 340              		.file 6 "Drivers/CMSIS/Device/ST/STM32F4xx/Include/stm32f401xc.h"
 341              		.file 7 "Drivers/STM32F4xx_HAL_Driver/Inc/stm32f4xx_hal_def.h"
 342              		.file 8 "Drivers/STM32F4xx_HAL_Driver/Inc/stm32f4xx_hal_dma.h"
 343              		.file 9 "Drivers/STM32F4xx_HAL_Driver/Inc/stm32f4xx_hal_flash_ex.h"
 344              		.file 10 "Drivers/STM32F4xx_HAL_Driver/Inc/stm32f4xx_hal_uart.h"
 345              		.file 11 "Drivers/STM32F4xx_HAL_Driver/Inc/stm32f4xx_hal.h"
 346              		.file 12 "Core/Inc/usart.h"
 347              		.file 13 "d:\\vs_code_stm32\\9 2019-q4-major\\arm-none-eabi\\include\\sys\\lock.h"
 348              		.file 14 "d:\\vs_code_stm32\\9 2019-q4-major\\arm-none-eabi\\include\\sys\\_types.h"
 349              		.file 15 "d:\\vs_code_stm32\\9 2019-q4-major\\lib\\gcc\\arm-none-eabi\\9.2.1\\include\\stddef.h"
 350              		.file 16 "d:\\vs_code_stm32\\9 2019-q4-major\\arm-none-eabi\\include\\sys\\reent.h"
 351              		.file 17 "Drivers/STM32F4xx_HAL_Driver/Inc/stm32f4xx_hal_flash.h"
 352              		.file 18 "<built-in>"
ARM GAS  C:\Users\Kiana\AppData\Local\Temp\ccsHba3y.s 			page 9


DEFINED SYMBOLS
                            *ABS*:00000000 flash.c
C:\Users\Kiana\AppData\Local\Temp\ccsHba3y.s:18     .rodata.FlashRead.str1.4:00000000 $d
C:\Users\Kiana\AppData\Local\Temp\ccsHba3y.s:22     .text.FlashRead:00000000 $t
C:\Users\Kiana\AppData\Local\Temp\ccsHba3y.s:30     .text.FlashRead:00000000 FlashRead
C:\Users\Kiana\AppData\Local\Temp\ccsHba3y.s:81     .text.FlashRead:0000001c $d
C:\Users\Kiana\AppData\Local\Temp\ccsHba3y.s:86     .rodata.FlashEraseSector5.str1.4:00000000 $d
C:\Users\Kiana\AppData\Local\Temp\ccsHba3y.s:93     .text.FlashEraseSector5:00000000 $t
C:\Users\Kiana\AppData\Local\Temp\ccsHba3y.s:100    .text.FlashEraseSector5:00000000 FlashEraseSector5
C:\Users\Kiana\AppData\Local\Temp\ccsHba3y.s:184    .text.FlashEraseSector5:00000040 $d
C:\Users\Kiana\AppData\Local\Temp\ccsHba3y.s:190    .text.FlashWriteWithoutErase:00000000 $t
C:\Users\Kiana\AppData\Local\Temp\ccsHba3y.s:197    .text.FlashWriteWithoutErase:00000000 FlashWriteWithoutErase
C:\Users\Kiana\AppData\Local\Temp\ccsHba3y.s:269    .rodata.FlashWrite.str1.4:00000000 $d
C:\Users\Kiana\AppData\Local\Temp\ccsHba3y.s:273    .text.FlashWrite:00000000 $t
C:\Users\Kiana\AppData\Local\Temp\ccsHba3y.s:280    .text.FlashWrite:00000000 FlashWrite
C:\Users\Kiana\AppData\Local\Temp\ccsHba3y.s:330    .text.FlashWrite:0000002c $d

UNDEFINED SYMBOLS
puts
HAL_FLASHEx_Erase
HAL_FLASH_Program
HAL_FLASH_Unlock
HAL_FLASH_Lock
