ARM GAS  C:\Users\Kiana\AppData\Local\Temp\cc116mCw.s 			page 1


   1              		.cpu cortex-m4
   2              		.eabi_attribute 27, 1
   3              		.eabi_attribute 28, 1
   4              		.eabi_attribute 20, 1
   5              		.eabi_attribute 21, 1
   6              		.eabi_attribute 23, 3
   7              		.eabi_attribute 24, 1
   8              		.eabi_attribute 25, 1
   9              		.eabi_attribute 26, 1
  10              		.eabi_attribute 30, 1
  11              		.eabi_attribute 34, 1
  12              		.eabi_attribute 18, 4
  13              		.file	"NRF24L01.c"
  14              		.text
  15              	.Ltext0:
  16              		.cfi_sections	.debug_frame
  17              		.section	.text.SPIx_ReadWriteByte,"ax",%progbits
  18              		.align	1
  19              		.global	SPIx_ReadWriteByte
  20              		.arch armv7e-m
  21              		.syntax unified
  22              		.thumb
  23              		.thumb_func
  24              		.fpu fpv4-sp-d16
  26              	SPIx_ReadWriteByte:
  27              	.LVL0:
  28              	.LFB130:
  29              		.file 1 "Core/Src/NRF24L01.c"
   1:Core/Src/NRF24L01.c **** /* åŒ…å«å¤´æ–‡ä»¶ ----------------------------------------------------------------*/
   2:Core/Src/NRF24L01.c **** #include "NRF24L01.h"
   3:Core/Src/NRF24L01.c **** 
   4:Core/Src/NRF24L01.c **** /* ç§æœ‰ç±»å‹å®šä¹‰ --------------------------------------------------------------*/
   5:Core/Src/NRF24L01.c **** /* ç§æœ‰å®å®šä¹‰ ----------------------------------------------------------------*/              
   6:Core/Src/NRF24L01.c **** /* ç§æœ‰å˜é‡ ------------------------------------------------------------------*/
   7:Core/Src/NRF24L01.c **** 
   8:Core/Src/NRF24L01.c **** const uint8_t TX_ADDRESS[TX_ADR_WIDTH]={0xb0,0x43,0x10,0x10,0x01}; //å‘é€åœ°å€
   9:Core/Src/NRF24L01.c **** const uint8_t RX_ADDRESS[RX_ADR_WIDTH]={0xb0,0x43,0x10,0x10,0x01};
  10:Core/Src/NRF24L01.c **** 
  11:Core/Src/NRF24L01.c **** /* æ‰©å±•å˜é‡ ------------------------------------------------------------------*/
  12:Core/Src/NRF24L01.c **** /* ç§æœ‰å‡½æ•°åŸå½¢ --------------------------------------------------------------*/
  13:Core/Src/NRF24L01.c **** /* å‡½æ•°ä½“ --------------------------------------------------------------------*/
  14:Core/Src/NRF24L01.c **** 
  15:Core/Src/NRF24L01.c **** 
  16:Core/Src/NRF24L01.c **** /**
  17:Core/Src/NRF24L01.c ****   * å‡½æ•°åŠŸèƒ½: å¾€ä¸²è¡ŒFlashè¯»å–å†™å…¥ä¸€ä¸ªå­—èŠ‚æ•°æ®å¹¶æ¥æ”¶ä¸€ä¸ªå­—èŠ‚æ•°æ®
  18:Core/Src/NRF24L01.c ****   * è¾“å…¥å‚æ•°: byteï¼šå¾…å‘é€æ•°æ®
  19:Core/Src/NRF24L01.c ****   * è¿” å› å€¼: uint8_tï¼šæ¥æ”¶åˆ°çš„æ•°æ®
  20:Core/Src/NRF24L01.c ****   * è¯´    æ˜ï¼šæ— 
  21:Core/Src/NRF24L01.c ****   */
  22:Core/Src/NRF24L01.c **** uint8_t SPIx_ReadWriteByte(SPI_HandleTypeDef* hspi,uint8_t byte)
  23:Core/Src/NRF24L01.c **** {
  30              		.loc 1 23 1 view -0
  31              		.cfi_startproc
  32              		@ args = 0, pretend = 0, frame = 8
  33              		@ frame_needed = 0, uses_anonymous_args = 0
  34              		.loc 1 23 1 is_stmt 0 view .LVU1
  35 0000 00B5     		push	{lr}
ARM GAS  C:\Users\Kiana\AppData\Local\Temp\cc116mCw.s 			page 2


  36              	.LCFI0:
  37              		.cfi_def_cfa_offset 4
  38              		.cfi_offset 14, -4
  39 0002 85B0     		sub	sp, sp, #20
  40              	.LCFI1:
  41              		.cfi_def_cfa_offset 24
  24:Core/Src/NRF24L01.c ****   uint8_t d_read,d_send=byte;
  42              		.loc 1 24 3 is_stmt 1 view .LVU2
  43              		.loc 1 24 18 is_stmt 0 view .LVU3
  44 0004 8DF80E10 		strb	r1, [sp, #14]
  25:Core/Src/NRF24L01.c ****   if(HAL_SPI_TransmitReceive(hspi,&d_send,&d_read,1,0xFF)!=HAL_OK)
  45              		.loc 1 25 3 is_stmt 1 view .LVU4
  46              		.loc 1 25 6 is_stmt 0 view .LVU5
  47 0008 FF23     		movs	r3, #255
  48 000a 0093     		str	r3, [sp]
  49 000c 0123     		movs	r3, #1
  50 000e 0DF10F02 		add	r2, sp, #15
  51 0012 0DF10E01 		add	r1, sp, #14
  52              	.LVL1:
  53              		.loc 1 25 6 view .LVU6
  54 0016 FFF7FEFF 		bl	HAL_SPI_TransmitReceive
  55              	.LVL2:
  56              		.loc 1 25 5 view .LVU7
  57 001a 10B1     		cbz	r0, .L2
  26:Core/Src/NRF24L01.c ****   {
  27:Core/Src/NRF24L01.c ****     d_read=0xFF;
  58              		.loc 1 27 5 is_stmt 1 view .LVU8
  59              		.loc 1 27 11 is_stmt 0 view .LVU9
  60 001c FF23     		movs	r3, #255
  61 001e 8DF80F30 		strb	r3, [sp, #15]
  62              	.L2:
  28:Core/Src/NRF24L01.c ****   }
  29:Core/Src/NRF24L01.c ****   return d_read; 
  63              		.loc 1 29 3 is_stmt 1 view .LVU10
  30:Core/Src/NRF24L01.c **** }
  64              		.loc 1 30 1 is_stmt 0 view .LVU11
  65 0022 9DF80F00 		ldrb	r0, [sp, #15]	@ zero_extendqisi2
  66 0026 05B0     		add	sp, sp, #20
  67              	.LCFI2:
  68              		.cfi_def_cfa_offset 4
  69              		@ sp needed
  70 0028 5DF804FB 		ldr	pc, [sp], #4
  71              		.cfi_endproc
  72              	.LFE130:
  74              		.section	.text.NRF24L01_Write_Reg,"ax",%progbits
  75              		.align	1
  76              		.global	NRF24L01_Write_Reg
  77              		.syntax unified
  78              		.thumb
  79              		.thumb_func
  80              		.fpu fpv4-sp-d16
  82              	NRF24L01_Write_Reg:
  83              	.LVL3:
  84              	.LFB132:
  31:Core/Src/NRF24L01.c **** 
  32:Core/Src/NRF24L01.c **** /**
  33:Core/Src/NRF24L01.c ****   * å‡½æ•°åŠŸèƒ½: æ£€æµ‹24L01æ˜¯å¦å­˜åœ¨
ARM GAS  C:\Users\Kiana\AppData\Local\Temp\cc116mCw.s 			page 3


  34:Core/Src/NRF24L01.c ****   * è¾“å…¥å‚æ•°: æ— 
  35:Core/Src/NRF24L01.c ****   * è¿” å› å€¼: 0ï¼ŒæˆåŠŸ;1ï¼Œå¤±è´¥
  36:Core/Src/NRF24L01.c ****   * è¯´    æ˜ï¼šæ—           
  37:Core/Src/NRF24L01.c ****   */ 
  38:Core/Src/NRF24L01.c **** uint8_t NRF24L01_Check(void)
  39:Core/Src/NRF24L01.c **** {
  40:Core/Src/NRF24L01.c **** 	uint8_t buf[5]={0XA5,0XA5,0XA5,0XA5,0XA5};
  41:Core/Src/NRF24L01.c **** 	uint8_t i;
  42:Core/Src/NRF24L01.c ****   
  43:Core/Src/NRF24L01.c **** 	NRF24L01_Write_Buf(NRF_WRITE_REG+TX_ADDR,buf,5);//å†™å…¥5ä¸ªå­—èŠ‚çš„åœ°å€.	
  44:Core/Src/NRF24L01.c **** 	NRF24L01_Read_Buf(TX_ADDR,buf,5); //è¯»å‡ºå†™å…¥çš„åœ°å€  
  45:Core/Src/NRF24L01.c **** 	for(i=0;i<5;i++)if(buf[i]!=0XA5)break;	 							   
  46:Core/Src/NRF24L01.c **** 	if(i!=5)return 1;//æ£€æµ‹24L01é”™è¯¯	
  47:Core/Src/NRF24L01.c **** 	return 0;		 //æ£€æµ‹åˆ°24L01
  48:Core/Src/NRF24L01.c **** }	 	 
  49:Core/Src/NRF24L01.c **** 
  50:Core/Src/NRF24L01.c **** /**
  51:Core/Src/NRF24L01.c ****   * å‡½æ•°åŠŸèƒ½: SPIå†™å¯„å­˜å™¨
  52:Core/Src/NRF24L01.c ****   * è¾“å…¥å‚æ•°: æ— 
  53:Core/Src/NRF24L01.c ****   * è¿” å› å€¼: æ— 
  54:Core/Src/NRF24L01.c ****   * è¯´    æ˜ï¼šreg:æŒ‡å®šå¯„å­˜å™¨åœ°å€
  55:Core/Src/NRF24L01.c ****   *           
  56:Core/Src/NRF24L01.c ****   */ 
  57:Core/Src/NRF24L01.c **** uint8_t NRF24L01_Write_Reg(uint8_t reg,uint8_t value)
  58:Core/Src/NRF24L01.c **** {
  85              		.loc 1 58 1 is_stmt 1 view -0
  86              		.cfi_startproc
  87              		@ args = 0, pretend = 0, frame = 0
  88              		@ frame_needed = 0, uses_anonymous_args = 0
  89              		.loc 1 58 1 is_stmt 0 view .LVU13
  90 0000 F8B5     		push	{r3, r4, r5, r6, r7, lr}
  91              	.LCFI3:
  92              		.cfi_def_cfa_offset 24
  93              		.cfi_offset 3, -24
  94              		.cfi_offset 4, -20
  95              		.cfi_offset 5, -16
  96              		.cfi_offset 6, -12
  97              		.cfi_offset 7, -8
  98              		.cfi_offset 14, -4
  99 0002 0446     		mov	r4, r0
 100 0004 0D46     		mov	r5, r1
  59:Core/Src/NRF24L01.c **** 	uint8_t status;	
 101              		.loc 1 59 2 is_stmt 1 view .LVU14
  60:Core/Src/NRF24L01.c ****   NRF24L01_SPI_CS_ENABLE();                 //ä½¿èƒ½SPIä¼ è¾“
 102              		.loc 1 60 3 view .LVU15
 103 0006 0C4E     		ldr	r6, .L6
 104 0008 0022     		movs	r2, #0
 105 000a 4FF48051 		mov	r1, #4096
 106              	.LVL4:
 107              		.loc 1 60 3 is_stmt 0 view .LVU16
 108 000e 3046     		mov	r0, r6
 109              	.LVL5:
 110              		.loc 1 60 3 view .LVU17
 111 0010 FFF7FEFF 		bl	HAL_GPIO_WritePin
 112              	.LVL6:
  61:Core/Src/NRF24L01.c ****   status =SPIx_ReadWriteByte(&hspi_NRF24L01,reg);//å‘é€å¯„å­˜å™¨å· 
 113              		.loc 1 61 3 is_stmt 1 view .LVU18
ARM GAS  C:\Users\Kiana\AppData\Local\Temp\cc116mCw.s 			page 4


 114              		.loc 1 61 11 is_stmt 0 view .LVU19
 115 0014 094F     		ldr	r7, .L6+4
 116 0016 2146     		mov	r1, r4
 117 0018 3846     		mov	r0, r7
 118 001a FFF7FEFF 		bl	SPIx_ReadWriteByte
 119              	.LVL7:
 120 001e 0446     		mov	r4, r0
 121              	.LVL8:
  62:Core/Src/NRF24L01.c ****   SPIx_ReadWriteByte(&hspi_NRF24L01,value);      //å†™å…¥å¯„å­˜å™¨çš„å€¼
 122              		.loc 1 62 3 is_stmt 1 view .LVU20
 123 0020 2946     		mov	r1, r5
 124 0022 3846     		mov	r0, r7
 125 0024 FFF7FEFF 		bl	SPIx_ReadWriteByte
 126              	.LVL9:
  63:Core/Src/NRF24L01.c ****   NRF24L01_SPI_CS_DISABLE();                 //ç¦æ­¢SPIä¼ è¾“	   
 127              		.loc 1 63 3 view .LVU21
 128 0028 0122     		movs	r2, #1
 129 002a 4FF48051 		mov	r1, #4096
 130 002e 3046     		mov	r0, r6
 131 0030 FFF7FEFF 		bl	HAL_GPIO_WritePin
 132              	.LVL10:
  64:Core/Src/NRF24L01.c ****   return(status);       			//è¿”å›çŠ¶æ€å€¼
 133              		.loc 1 64 3 view .LVU22
  65:Core/Src/NRF24L01.c **** }
 134              		.loc 1 65 1 is_stmt 0 view .LVU23
 135 0034 2046     		mov	r0, r4
 136 0036 F8BD     		pop	{r3, r4, r5, r6, r7, pc}
 137              	.LVL11:
 138              	.L7:
 139              		.loc 1 65 1 view .LVU24
 140              		.align	2
 141              	.L6:
 142 0038 00040240 		.word	1073873920
 143 003c 00000000 		.word	hspi2
 144              		.cfi_endproc
 145              	.LFE132:
 147              		.section	.text.NRF24L01_Read_Reg,"ax",%progbits
 148              		.align	1
 149              		.global	NRF24L01_Read_Reg
 150              		.syntax unified
 151              		.thumb
 152              		.thumb_func
 153              		.fpu fpv4-sp-d16
 155              	NRF24L01_Read_Reg:
 156              	.LVL12:
 157              	.LFB133:
  66:Core/Src/NRF24L01.c **** 
  67:Core/Src/NRF24L01.c **** /**
  68:Core/Src/NRF24L01.c ****   * å‡½æ•°åŠŸèƒ½: è¯»å–SPIå¯„å­˜å™¨å€¼
  69:Core/Src/NRF24L01.c ****   * è¾“å…¥å‚æ•°: æ— 
  70:Core/Src/NRF24L01.c ****   * è¿” å› å€¼: æ— 
  71:Core/Src/NRF24L01.c ****   * è¯´    æ˜ï¼šreg:è¦è¯»çš„å¯„å­˜å™¨
  72:Core/Src/NRF24L01.c ****   *           
  73:Core/Src/NRF24L01.c ****   */ 
  74:Core/Src/NRF24L01.c **** uint8_t NRF24L01_Read_Reg(uint8_t reg)
  75:Core/Src/NRF24L01.c **** {
 158              		.loc 1 75 1 is_stmt 1 view -0
ARM GAS  C:\Users\Kiana\AppData\Local\Temp\cc116mCw.s 			page 5


 159              		.cfi_startproc
 160              		@ args = 0, pretend = 0, frame = 0
 161              		@ frame_needed = 0, uses_anonymous_args = 0
 162              		.loc 1 75 1 is_stmt 0 view .LVU26
 163 0000 70B5     		push	{r4, r5, r6, lr}
 164              	.LCFI4:
 165              		.cfi_def_cfa_offset 16
 166              		.cfi_offset 4, -16
 167              		.cfi_offset 5, -12
 168              		.cfi_offset 6, -8
 169              		.cfi_offset 14, -4
 170 0002 0446     		mov	r4, r0
  76:Core/Src/NRF24L01.c **** 	uint8_t reg_val;	    
 171              		.loc 1 76 2 is_stmt 1 view .LVU27
  77:Core/Src/NRF24L01.c ****  	NRF24L01_SPI_CS_ENABLE();          //ä½¿èƒ½SPIä¼ è¾“		
 172              		.loc 1 77 3 view .LVU28
 173 0004 0C4D     		ldr	r5, .L10
 174 0006 0022     		movs	r2, #0
 175 0008 4FF48051 		mov	r1, #4096
 176 000c 2846     		mov	r0, r5
 177              	.LVL13:
 178              		.loc 1 77 3 is_stmt 0 view .LVU29
 179 000e FFF7FEFF 		bl	HAL_GPIO_WritePin
 180              	.LVL14:
  78:Core/Src/NRF24L01.c ****   SPIx_ReadWriteByte(&hspi_NRF24L01,reg);   //å‘é€å¯„å­˜å™¨å·
 181              		.loc 1 78 3 is_stmt 1 view .LVU30
 182 0012 0A4E     		ldr	r6, .L10+4
 183 0014 2146     		mov	r1, r4
 184 0016 3046     		mov	r0, r6
 185 0018 FFF7FEFF 		bl	SPIx_ReadWriteByte
 186              	.LVL15:
  79:Core/Src/NRF24L01.c ****   reg_val=SPIx_ReadWriteByte(&hspi_NRF24L01,0XFF);//è¯»å–å¯„å­˜å™¨å†…å®¹
 187              		.loc 1 79 3 view .LVU31
 188              		.loc 1 79 11 is_stmt 0 view .LVU32
 189 001c FF21     		movs	r1, #255
 190 001e 3046     		mov	r0, r6
 191 0020 FFF7FEFF 		bl	SPIx_ReadWriteByte
 192              	.LVL16:
 193 0024 0446     		mov	r4, r0
 194              	.LVL17:
  80:Core/Src/NRF24L01.c ****   NRF24L01_SPI_CS_DISABLE();          //ç¦æ­¢SPIä¼ è¾“		    
 195              		.loc 1 80 3 is_stmt 1 view .LVU33
 196 0026 0122     		movs	r2, #1
 197 0028 4FF48051 		mov	r1, #4096
 198 002c 2846     		mov	r0, r5
 199 002e FFF7FEFF 		bl	HAL_GPIO_WritePin
 200              	.LVL18:
  81:Core/Src/NRF24L01.c ****   return(reg_val);           //è¿”å›çŠ¶æ€å€¼
 201              		.loc 1 81 3 view .LVU34
  82:Core/Src/NRF24L01.c **** }	
 202              		.loc 1 82 1 is_stmt 0 view .LVU35
 203 0032 2046     		mov	r0, r4
 204 0034 70BD     		pop	{r4, r5, r6, pc}
 205              	.LVL19:
 206              	.L11:
 207              		.loc 1 82 1 view .LVU36
 208 0036 00BF     		.align	2
ARM GAS  C:\Users\Kiana\AppData\Local\Temp\cc116mCw.s 			page 6


 209              	.L10:
 210 0038 00040240 		.word	1073873920
 211 003c 00000000 		.word	hspi2
 212              		.cfi_endproc
 213              	.LFE133:
 215              		.section	.text.NRF24L01_Read_Buf,"ax",%progbits
 216              		.align	1
 217              		.global	NRF24L01_Read_Buf
 218              		.syntax unified
 219              		.thumb
 220              		.thumb_func
 221              		.fpu fpv4-sp-d16
 223              	NRF24L01_Read_Buf:
 224              	.LVL20:
 225              	.LFB134:
  83:Core/Src/NRF24L01.c **** 
  84:Core/Src/NRF24L01.c **** /**
  85:Core/Src/NRF24L01.c ****   * å‡½æ•°åŠŸèƒ½: åœ¨æŒ‡å®šä½ç½®è¯»å‡ºæŒ‡å®šé•¿åº¦çš„æ•°æ®
  86:Core/Src/NRF24L01.c ****   * è¾“å…¥å‚æ•°: æ— 
  87:Core/Src/NRF24L01.c ****   * è¿” å› å€¼: æ­¤æ¬¡è¯»åˆ°çš„çŠ¶æ€å¯„å­˜å™¨å€¼ 
  88:Core/Src/NRF24L01.c ****   * è¯´    æ˜ï¼šæ— 
  89:Core/Src/NRF24L01.c ****   *           
  90:Core/Src/NRF24L01.c ****   */ 
  91:Core/Src/NRF24L01.c **** uint8_t NRF24L01_Read_Buf(uint8_t reg,uint8_t *pBuf,uint8_t len)
  92:Core/Src/NRF24L01.c **** {
 226              		.loc 1 92 1 is_stmt 1 view -0
 227              		.cfi_startproc
 228              		@ args = 0, pretend = 0, frame = 0
 229              		@ frame_needed = 0, uses_anonymous_args = 0
 230              		.loc 1 92 1 is_stmt 0 view .LVU38
 231 0000 F8B5     		push	{r3, r4, r5, r6, r7, lr}
 232              	.LCFI5:
 233              		.cfi_def_cfa_offset 24
 234              		.cfi_offset 3, -24
 235              		.cfi_offset 4, -20
 236              		.cfi_offset 5, -16
 237              		.cfi_offset 6, -12
 238              		.cfi_offset 7, -8
 239              		.cfi_offset 14, -4
 240 0002 0446     		mov	r4, r0
 241 0004 0E46     		mov	r6, r1
 242 0006 1546     		mov	r5, r2
  93:Core/Src/NRF24L01.c **** 	uint8_t status,uint8_t_ctr;	   
 243              		.loc 1 93 2 is_stmt 1 view .LVU39
  94:Core/Src/NRF24L01.c ****   
  95:Core/Src/NRF24L01.c ****   NRF24L01_SPI_CS_ENABLE();           //ä½¿èƒ½SPIä¼ è¾“
 244              		.loc 1 95 3 view .LVU40
 245 0008 0022     		movs	r2, #0
 246              	.LVL21:
 247              		.loc 1 95 3 is_stmt 0 view .LVU41
 248 000a 4FF48051 		mov	r1, #4096
 249              	.LVL22:
 250              		.loc 1 95 3 view .LVU42
 251 000e 0D48     		ldr	r0, .L17
 252              	.LVL23:
 253              		.loc 1 95 3 view .LVU43
 254 0010 FFF7FEFF 		bl	HAL_GPIO_WritePin
ARM GAS  C:\Users\Kiana\AppData\Local\Temp\cc116mCw.s 			page 7


 255              	.LVL24:
  96:Core/Src/NRF24L01.c ****   status=SPIx_ReadWriteByte(&hspi_NRF24L01,reg);//å‘é€å¯„å­˜å™¨å€¼(ä½ç½®),å¹¶è¯»å–çŠ¶æ€å€¼   	
 256              		.loc 1 96 3 is_stmt 1 view .LVU44
 257              		.loc 1 96 10 is_stmt 0 view .LVU45
 258 0014 2146     		mov	r1, r4
 259 0016 0C48     		ldr	r0, .L17+4
 260 0018 FFF7FEFF 		bl	SPIx_ReadWriteByte
 261              	.LVL25:
 262 001c 0746     		mov	r7, r0
 263              	.LVL26:
  97:Core/Src/NRF24L01.c ****  	for(uint8_t_ctr=0;uint8_t_ctr<len;uint8_t_ctr++)
 264              		.loc 1 97 3 is_stmt 1 view .LVU46
 265              		.loc 1 97 18 is_stmt 0 view .LVU47
 266 001e 0024     		movs	r4, #0
 267              	.LVL27:
 268              	.L13:
 269              		.loc 1 97 21 is_stmt 1 discriminator 1 view .LVU48
 270              		.loc 1 97 3 is_stmt 0 discriminator 1 view .LVU49
 271 0020 AC42     		cmp	r4, r5
 272 0022 07D2     		bcs	.L16
  98:Core/Src/NRF24L01.c ****   {
  99:Core/Src/NRF24L01.c ****     pBuf[uint8_t_ctr]=SPIx_ReadWriteByte(&hspi_NRF24L01,0XFF);//è¯»å‡ºæ•°æ®
 273              		.loc 1 99 5 is_stmt 1 discriminator 3 view .LVU50
 274              		.loc 1 99 23 is_stmt 0 discriminator 3 view .LVU51
 275 0024 FF21     		movs	r1, #255
 276 0026 0848     		ldr	r0, .L17+4
 277 0028 FFF7FEFF 		bl	SPIx_ReadWriteByte
 278              	.LVL28:
 279              		.loc 1 99 22 discriminator 3 view .LVU52
 280 002c 3055     		strb	r0, [r6, r4]
  97:Core/Src/NRF24L01.c ****  	for(uint8_t_ctr=0;uint8_t_ctr<len;uint8_t_ctr++)
 281              		.loc 1 97 37 is_stmt 1 discriminator 3 view .LVU53
  97:Core/Src/NRF24L01.c ****  	for(uint8_t_ctr=0;uint8_t_ctr<len;uint8_t_ctr++)
 282              		.loc 1 97 48 is_stmt 0 discriminator 3 view .LVU54
 283 002e 0134     		adds	r4, r4, #1
 284              	.LVL29:
  97:Core/Src/NRF24L01.c ****  	for(uint8_t_ctr=0;uint8_t_ctr<len;uint8_t_ctr++)
 285              		.loc 1 97 48 discriminator 3 view .LVU55
 286 0030 E4B2     		uxtb	r4, r4
 287              	.LVL30:
  97:Core/Src/NRF24L01.c ****  	for(uint8_t_ctr=0;uint8_t_ctr<len;uint8_t_ctr++)
 288              		.loc 1 97 48 discriminator 3 view .LVU56
 289 0032 F5E7     		b	.L13
 290              	.L16:
 100:Core/Src/NRF24L01.c ****   }
 101:Core/Src/NRF24L01.c ****   NRF24L01_SPI_CS_DISABLE();       //å…³é—­SPIä¼ è¾“
 291              		.loc 1 101 3 is_stmt 1 view .LVU57
 292 0034 0122     		movs	r2, #1
 293 0036 4FF48051 		mov	r1, #4096
 294 003a 0248     		ldr	r0, .L17
 295 003c FFF7FEFF 		bl	HAL_GPIO_WritePin
 296              	.LVL31:
 102:Core/Src/NRF24L01.c ****   return status;        //è¿”å›è¯»åˆ°çš„çŠ¶æ€å€¼
 297              		.loc 1 102 3 view .LVU58
 103:Core/Src/NRF24L01.c **** }
 298              		.loc 1 103 1 is_stmt 0 view .LVU59
 299 0040 3846     		mov	r0, r7
ARM GAS  C:\Users\Kiana\AppData\Local\Temp\cc116mCw.s 			page 8


 300 0042 F8BD     		pop	{r3, r4, r5, r6, r7, pc}
 301              	.LVL32:
 302              	.L18:
 303              		.loc 1 103 1 view .LVU60
 304              		.align	2
 305              	.L17:
 306 0044 00040240 		.word	1073873920
 307 0048 00000000 		.word	hspi2
 308              		.cfi_endproc
 309              	.LFE134:
 311              		.section	.text.NRF24L01_Write_Buf,"ax",%progbits
 312              		.align	1
 313              		.global	NRF24L01_Write_Buf
 314              		.syntax unified
 315              		.thumb
 316              		.thumb_func
 317              		.fpu fpv4-sp-d16
 319              	NRF24L01_Write_Buf:
 320              	.LVL33:
 321              	.LFB135:
 104:Core/Src/NRF24L01.c **** 
 105:Core/Src/NRF24L01.c **** /**
 106:Core/Src/NRF24L01.c ****   * å‡½æ•°åŠŸèƒ½: åœ¨æŒ‡å®šä½ç½®å†™æŒ‡å®šé•¿åº¦çš„æ•°æ®
 107:Core/Src/NRF24L01.c ****   * è¾“å…¥å‚æ•°: æ— 
 108:Core/Src/NRF24L01.c ****   * è¿” å› å€¼: æ— 
 109:Core/Src/NRF24L01.c ****   * è¯´    æ˜ï¼šreg:å¯„å­˜å™¨(ä½ç½®)  *pBuf:æ•°æ®æŒ‡é’ˆ  len:æ•°æ®é•¿åº¦
 110:Core/Src/NRF24L01.c ****   *           
 111:Core/Src/NRF24L01.c ****   */ 
 112:Core/Src/NRF24L01.c **** uint8_t NRF24L01_Write_Buf(uint8_t reg, uint8_t *pBuf, uint8_t len)
 113:Core/Src/NRF24L01.c **** {
 322              		.loc 1 113 1 is_stmt 1 view -0
 323              		.cfi_startproc
 324              		@ args = 0, pretend = 0, frame = 0
 325              		@ frame_needed = 0, uses_anonymous_args = 0
 326              		.loc 1 113 1 is_stmt 0 view .LVU62
 327 0000 F8B5     		push	{r3, r4, r5, r6, r7, lr}
 328              	.LCFI6:
 329              		.cfi_def_cfa_offset 24
 330              		.cfi_offset 3, -24
 331              		.cfi_offset 4, -20
 332              		.cfi_offset 5, -16
 333              		.cfi_offset 6, -12
 334              		.cfi_offset 7, -8
 335              		.cfi_offset 14, -4
 336 0002 0546     		mov	r5, r0
 337 0004 0C46     		mov	r4, r1
 338 0006 1646     		mov	r6, r2
 114:Core/Src/NRF24L01.c **** 	uint8_t status,uint8_t_ctr;	    
 339              		.loc 1 114 2 is_stmt 1 view .LVU63
 115:Core/Src/NRF24L01.c ****  	NRF24L01_SPI_CS_ENABLE();          //ä½¿èƒ½SPIä¼ è¾“
 340              		.loc 1 115 3 view .LVU64
 341 0008 0022     		movs	r2, #0
 342              	.LVL34:
 343              		.loc 1 115 3 is_stmt 0 view .LVU65
 344 000a 4FF48051 		mov	r1, #4096
 345              	.LVL35:
 346              		.loc 1 115 3 view .LVU66
ARM GAS  C:\Users\Kiana\AppData\Local\Temp\cc116mCw.s 			page 9


 347 000e 0D48     		ldr	r0, .L24
 348              	.LVL36:
 349              		.loc 1 115 3 view .LVU67
 350 0010 FFF7FEFF 		bl	HAL_GPIO_WritePin
 351              	.LVL37:
 116:Core/Src/NRF24L01.c ****   status = SPIx_ReadWriteByte(&hspi_NRF24L01,reg);//å‘é€å¯„å­˜å™¨å€¼(ä½ç½®),å¹¶è¯»å–çŠ¶æ€å€¼
 352              		.loc 1 116 3 is_stmt 1 view .LVU68
 353              		.loc 1 116 12 is_stmt 0 view .LVU69
 354 0014 2946     		mov	r1, r5
 355 0016 0C48     		ldr	r0, .L24+4
 356 0018 FFF7FEFF 		bl	SPIx_ReadWriteByte
 357              	.LVL38:
 358 001c 0746     		mov	r7, r0
 359              	.LVL39:
 117:Core/Src/NRF24L01.c ****   for(uint8_t_ctr=0; uint8_t_ctr<len; uint8_t_ctr++)
 360              		.loc 1 117 3 is_stmt 1 view .LVU70
 361              		.loc 1 117 18 is_stmt 0 view .LVU71
 362 001e 0025     		movs	r5, #0
 363              	.LVL40:
 364              	.L20:
 365              		.loc 1 117 22 is_stmt 1 discriminator 1 view .LVU72
 366              		.loc 1 117 3 is_stmt 0 discriminator 1 view .LVU73
 367 0020 B542     		cmp	r5, r6
 368 0022 07D2     		bcs	.L23
 118:Core/Src/NRF24L01.c ****   {
 119:Core/Src/NRF24L01.c ****     SPIx_ReadWriteByte(&hspi_NRF24L01,*pBuf++); //å†™å…¥æ•°æ®	 
 369              		.loc 1 119 5 is_stmt 1 discriminator 3 view .LVU74
 370              	.LVL41:
 371              		.loc 1 119 5 is_stmt 0 discriminator 3 view .LVU75
 372 0024 14F8011B 		ldrb	r1, [r4], #1	@ zero_extendqisi2
 373              	.LVL42:
 374              		.loc 1 119 5 discriminator 3 view .LVU76
 375 0028 0748     		ldr	r0, .L24+4
 376 002a FFF7FEFF 		bl	SPIx_ReadWriteByte
 377              	.LVL43:
 117:Core/Src/NRF24L01.c ****   for(uint8_t_ctr=0; uint8_t_ctr<len; uint8_t_ctr++)
 378              		.loc 1 117 39 is_stmt 1 discriminator 3 view .LVU77
 117:Core/Src/NRF24L01.c ****   for(uint8_t_ctr=0; uint8_t_ctr<len; uint8_t_ctr++)
 379              		.loc 1 117 50 is_stmt 0 discriminator 3 view .LVU78
 380 002e 0135     		adds	r5, r5, #1
 381              	.LVL44:
 117:Core/Src/NRF24L01.c ****   for(uint8_t_ctr=0; uint8_t_ctr<len; uint8_t_ctr++)
 382              		.loc 1 117 50 discriminator 3 view .LVU79
 383 0030 EDB2     		uxtb	r5, r5
 384              	.LVL45:
 117:Core/Src/NRF24L01.c ****   for(uint8_t_ctr=0; uint8_t_ctr<len; uint8_t_ctr++)
 385              		.loc 1 117 50 discriminator 3 view .LVU80
 386 0032 F5E7     		b	.L20
 387              	.L23:
 120:Core/Src/NRF24L01.c ****   }
 121:Core/Src/NRF24L01.c ****   NRF24L01_SPI_CS_DISABLE();       //å…³é—­SPIä¼ è¾“
 388              		.loc 1 121 3 is_stmt 1 view .LVU81
 389 0034 0122     		movs	r2, #1
 390 0036 4FF48051 		mov	r1, #4096
 391 003a 0248     		ldr	r0, .L24
 392 003c FFF7FEFF 		bl	HAL_GPIO_WritePin
 393              	.LVL46:
ARM GAS  C:\Users\Kiana\AppData\Local\Temp\cc116mCw.s 			page 10


 122:Core/Src/NRF24L01.c ****   return status;          //è¿”å›è¯»åˆ°çš„çŠ¶æ€å€¼
 394              		.loc 1 122 3 view .LVU82
 123:Core/Src/NRF24L01.c **** }				   
 395              		.loc 1 123 1 is_stmt 0 view .LVU83
 396 0040 3846     		mov	r0, r7
 397 0042 F8BD     		pop	{r3, r4, r5, r6, r7, pc}
 398              	.LVL47:
 399              	.L25:
 400              		.loc 1 123 1 view .LVU84
 401              		.align	2
 402              	.L24:
 403 0044 00040240 		.word	1073873920
 404 0048 00000000 		.word	hspi2
 405              		.cfi_endproc
 406              	.LFE135:
 408              		.section	.rodata.NRF24L01_Check.str1.4,"aMS",%progbits,1
 409              		.align	2
 410              	.LC0:
 411 0000 A5A5A5A5 		.ascii	"\245\245\245\245\245\000"
 411      A500
 412              		.section	.text.NRF24L01_Check,"ax",%progbits
 413              		.align	1
 414              		.global	NRF24L01_Check
 415              		.syntax unified
 416              		.thumb
 417              		.thumb_func
 418              		.fpu fpv4-sp-d16
 420              	NRF24L01_Check:
 421              	.LFB131:
  39:Core/Src/NRF24L01.c **** 	uint8_t buf[5]={0XA5,0XA5,0XA5,0XA5,0XA5};
 422              		.loc 1 39 1 is_stmt 1 view -0
 423              		.cfi_startproc
 424              		@ args = 0, pretend = 0, frame = 8
 425              		@ frame_needed = 0, uses_anonymous_args = 0
 426 0000 00B5     		push	{lr}
 427              	.LCFI7:
 428              		.cfi_def_cfa_offset 4
 429              		.cfi_offset 14, -4
 430 0002 83B0     		sub	sp, sp, #12
 431              	.LCFI8:
 432              		.cfi_def_cfa_offset 16
  40:Core/Src/NRF24L01.c **** 	uint8_t i;
 433              		.loc 1 40 2 view .LVU86
  40:Core/Src/NRF24L01.c **** 	uint8_t i;
 434              		.loc 1 40 10 is_stmt 0 view .LVU87
 435 0004 114B     		ldr	r3, .L33
 436 0006 93E80300 		ldm	r3, {r0, r1}
 437 000a 0090     		str	r0, [sp]
 438 000c 8DF80410 		strb	r1, [sp, #4]
  41:Core/Src/NRF24L01.c ****   
 439              		.loc 1 41 2 is_stmt 1 view .LVU88
  43:Core/Src/NRF24L01.c **** 	NRF24L01_Read_Buf(TX_ADDR,buf,5); //è¯»å‡ºå†™å…¥çš„åœ°å€  
 440              		.loc 1 43 2 view .LVU89
 441 0010 0522     		movs	r2, #5
 442 0012 6946     		mov	r1, sp
 443 0014 3020     		movs	r0, #48
 444 0016 FFF7FEFF 		bl	NRF24L01_Write_Buf
ARM GAS  C:\Users\Kiana\AppData\Local\Temp\cc116mCw.s 			page 11


 445              	.LVL48:
  44:Core/Src/NRF24L01.c **** 	for(i=0;i<5;i++)if(buf[i]!=0XA5)break;	 							   
 446              		.loc 1 44 2 view .LVU90
 447 001a 0522     		movs	r2, #5
 448 001c 6946     		mov	r1, sp
 449 001e 1020     		movs	r0, #16
 450 0020 FFF7FEFF 		bl	NRF24L01_Read_Buf
 451              	.LVL49:
  45:Core/Src/NRF24L01.c **** 	if(i!=5)return 1;//æ£€æµ‹24L01é”™è¯¯	
 452              		.loc 1 45 2 view .LVU91
  45:Core/Src/NRF24L01.c **** 	if(i!=5)return 1;//æ£€æµ‹24L01é”™è¯¯	
 453              		.loc 1 45 7 is_stmt 0 view .LVU92
 454 0024 0023     		movs	r3, #0
 455              	.LVL50:
 456              	.L27:
  45:Core/Src/NRF24L01.c **** 	if(i!=5)return 1;//æ£€æµ‹24L01é”™è¯¯	
 457              		.loc 1 45 10 is_stmt 1 discriminator 3 view .LVU93
  45:Core/Src/NRF24L01.c **** 	if(i!=5)return 1;//æ£€æµ‹24L01é”™è¯¯	
 458              		.loc 1 45 2 is_stmt 0 discriminator 3 view .LVU94
 459 0026 042B     		cmp	r3, #4
 460 0028 08D8     		bhi	.L28
  45:Core/Src/NRF24L01.c **** 	if(i!=5)return 1;//æ£€æµ‹24L01é”™è¯¯	
 461              		.loc 1 45 18 is_stmt 1 discriminator 4 view .LVU95
  45:Core/Src/NRF24L01.c **** 	if(i!=5)return 1;//æ£€æµ‹24L01é”™è¯¯	
 462              		.loc 1 45 24 is_stmt 0 discriminator 4 view .LVU96
 463 002a 02AA     		add	r2, sp, #8
 464 002c 1A44     		add	r2, r2, r3
 465 002e 12F8082C 		ldrb	r2, [r2, #-8]	@ zero_extendqisi2
  45:Core/Src/NRF24L01.c **** 	if(i!=5)return 1;//æ£€æµ‹24L01é”™è¯¯	
 466              		.loc 1 45 20 discriminator 4 view .LVU97
 467 0032 A52A     		cmp	r2, #165
 468 0034 02D1     		bne	.L28
  45:Core/Src/NRF24L01.c **** 	if(i!=5)return 1;//æ£€æµ‹24L01é”™è¯¯	
 469              		.loc 1 45 14 is_stmt 1 discriminator 2 view .LVU98
  45:Core/Src/NRF24L01.c **** 	if(i!=5)return 1;//æ£€æµ‹24L01é”™è¯¯	
 470              		.loc 1 45 15 is_stmt 0 discriminator 2 view .LVU99
 471 0036 0133     		adds	r3, r3, #1
 472              	.LVL51:
  45:Core/Src/NRF24L01.c **** 	if(i!=5)return 1;//æ£€æµ‹24L01é”™è¯¯	
 473              		.loc 1 45 15 discriminator 2 view .LVU100
 474 0038 DBB2     		uxtb	r3, r3
 475              	.LVL52:
  45:Core/Src/NRF24L01.c **** 	if(i!=5)return 1;//æ£€æµ‹24L01é”™è¯¯	
 476              		.loc 1 45 15 discriminator 2 view .LVU101
 477 003a F4E7     		b	.L27
 478              	.L28:
  46:Core/Src/NRF24L01.c **** 	return 0;		 //æ£€æµ‹åˆ°24L01
 479              		.loc 1 46 2 is_stmt 1 view .LVU102
  46:Core/Src/NRF24L01.c **** 	return 0;		 //æ£€æµ‹åˆ°24L01
 480              		.loc 1 46 4 is_stmt 0 view .LVU103
 481 003c 052B     		cmp	r3, #5
 482 003e 03D1     		bne	.L31
  47:Core/Src/NRF24L01.c **** }	 	 
 483              		.loc 1 47 9 view .LVU104
 484 0040 0020     		movs	r0, #0
 485              	.L30:
  48:Core/Src/NRF24L01.c **** 
ARM GAS  C:\Users\Kiana\AppData\Local\Temp\cc116mCw.s 			page 12


 486              		.loc 1 48 1 view .LVU105
 487 0042 03B0     		add	sp, sp, #12
 488              	.LCFI9:
 489              		.cfi_remember_state
 490              		.cfi_def_cfa_offset 4
 491              		@ sp needed
 492 0044 5DF804FB 		ldr	pc, [sp], #4
 493              	.L31:
 494              	.LCFI10:
 495              		.cfi_restore_state
  46:Core/Src/NRF24L01.c **** 	return 0;		 //æ£€æµ‹åˆ°24L01
 496              		.loc 1 46 17 view .LVU106
 497 0048 0120     		movs	r0, #1
 498 004a FAE7     		b	.L30
 499              	.L34:
 500              		.align	2
 501              	.L33:
 502 004c 00000000 		.word	.LC0
 503              		.cfi_endproc
 504              	.LFE131:
 506              		.section	.text.NRF24L01_TxPacket,"ax",%progbits
 507              		.align	1
 508              		.global	NRF24L01_TxPacket
 509              		.syntax unified
 510              		.thumb
 511              		.thumb_func
 512              		.fpu fpv4-sp-d16
 514              	NRF24L01_TxPacket:
 515              	.LVL53:
 516              	.LFB136:
 124:Core/Src/NRF24L01.c **** 
 125:Core/Src/NRF24L01.c **** /**
 126:Core/Src/NRF24L01.c ****   * å‡½æ•°åŠŸèƒ½: å¯åŠ¨NRF24L01å‘é€ä¸€æ¬¡æ•°æ®
 127:Core/Src/NRF24L01.c ****   * è¾“å…¥å‚æ•°: æ— 
 128:Core/Src/NRF24L01.c ****   * è¿” å› å€¼: å‘é€å®ŒæˆçŠ¶å†µ
 129:Core/Src/NRF24L01.c ****   * è¯´    æ˜ï¼štxbuf:å¾…å‘é€æ•°æ®é¦–åœ°å€
 130:Core/Src/NRF24L01.c ****   *           
 131:Core/Src/NRF24L01.c ****   */ 
 132:Core/Src/NRF24L01.c **** uint8_t NRF24L01_TxPacket(uint8_t *txbuf)
 133:Core/Src/NRF24L01.c **** {
 517              		.loc 1 133 1 is_stmt 1 view -0
 518              		.cfi_startproc
 519              		@ args = 0, pretend = 0, frame = 0
 520              		@ frame_needed = 0, uses_anonymous_args = 0
 521              		.loc 1 133 1 is_stmt 0 view .LVU108
 522 0000 38B5     		push	{r3, r4, r5, lr}
 523              	.LCFI11:
 524              		.cfi_def_cfa_offset 16
 525              		.cfi_offset 3, -16
 526              		.cfi_offset 4, -12
 527              		.cfi_offset 5, -8
 528              		.cfi_offset 14, -4
 529 0002 0446     		mov	r4, r0
 134:Core/Src/NRF24L01.c **** 	uint8_t sta;
 530              		.loc 1 134 2 is_stmt 1 view .LVU109
 135:Core/Src/NRF24L01.c **** 	NRF24L01_CE_LOW();
 531              		.loc 1 135 2 view .LVU110
ARM GAS  C:\Users\Kiana\AppData\Local\Temp\cc116mCw.s 			page 13


 532 0004 184D     		ldr	r5, .L42
 533 0006 0022     		movs	r2, #0
 534 0008 4FF48061 		mov	r1, #1024
 535 000c 2846     		mov	r0, r5
 536              	.LVL54:
 537              		.loc 1 135 2 is_stmt 0 view .LVU111
 538 000e FFF7FEFF 		bl	HAL_GPIO_WritePin
 539              	.LVL55:
 136:Core/Src/NRF24L01.c ****   NRF24L01_Write_Buf(WR_TX_PLOAD,txbuf,TX_PLOAD_WIDTH);//å†™æ•°æ®åˆ°TX BUF  32ä¸ªå­—èŠ‚
 540              		.loc 1 136 3 is_stmt 1 view .LVU112
 541 0012 2022     		movs	r2, #32
 542 0014 2146     		mov	r1, r4
 543 0016 A020     		movs	r0, #160
 544 0018 FFF7FEFF 		bl	NRF24L01_Write_Buf
 545              	.LVL56:
 137:Core/Src/NRF24L01.c ****  	NRF24L01_CE_HIGH();                                  //å¯åŠ¨å‘é€	 
 546              		.loc 1 137 3 view .LVU113
 547 001c 0122     		movs	r2, #1
 548 001e 4FF48061 		mov	r1, #1024
 549 0022 2846     		mov	r0, r5
 550 0024 FFF7FEFF 		bl	HAL_GPIO_WritePin
 551              	.LVL57:
 138:Core/Src/NRF24L01.c ****   
 139:Core/Src/NRF24L01.c **** 	while(NRF24L01_IRQ_PIN_READ()!=0);                   //ç­‰å¾…å‘é€å®Œæˆ
 552              		.loc 1 139 2 view .LVU114
 553              	.L36:
 554              		.loc 1 139 35 discriminator 1 view .LVU115
 555              		.loc 1 139 7 discriminator 1 view .LVU116
 556              		.loc 1 139 8 is_stmt 0 discriminator 1 view .LVU117
 557 0028 4FF48071 		mov	r1, #256
 558 002c 0F48     		ldr	r0, .L42+4
 559 002e FFF7FEFF 		bl	HAL_GPIO_ReadPin
 560              	.LVL58:
 561              		.loc 1 139 7 discriminator 1 view .LVU118
 562 0032 0028     		cmp	r0, #0
 563 0034 F8D1     		bne	.L36
 140:Core/Src/NRF24L01.c **** 	sta=NRF24L01_Read_Reg(STATUS);                       //è¯»å–çŠ¶æ€å¯„å­˜å™¨çš„å€¼	   
 564              		.loc 1 140 2 is_stmt 1 view .LVU119
 565              		.loc 1 140 6 is_stmt 0 view .LVU120
 566 0036 0720     		movs	r0, #7
 567 0038 FFF7FEFF 		bl	NRF24L01_Read_Reg
 568              	.LVL59:
 569 003c 0446     		mov	r4, r0
 570              	.LVL60:
 141:Core/Src/NRF24L01.c **** 	NRF24L01_Write_Reg(NRF_WRITE_REG+STATUS,sta);        //æ¸…é™¤TX_DSæˆ–MAX_RTä¸­æ–­æ ‡å¿—
 571              		.loc 1 141 2 is_stmt 1 view .LVU121
 572 003e 0146     		mov	r1, r0
 573 0040 2720     		movs	r0, #39
 574              	.LVL61:
 575              		.loc 1 141 2 is_stmt 0 view .LVU122
 576 0042 FFF7FEFF 		bl	NRF24L01_Write_Reg
 577              	.LVL62:
 142:Core/Src/NRF24L01.c **** 	if(sta&MAX_TX)                                       //è¾¾åˆ°æœ€å¤§é‡å‘æ¬¡æ•°
 578              		.loc 1 142 2 is_stmt 1 view .LVU123
 579              		.loc 1 142 4 is_stmt 0 view .LVU124
 580 0046 14F0100F 		tst	r4, #16
 581 004a 04D1     		bne	.L41
ARM GAS  C:\Users\Kiana\AppData\Local\Temp\cc116mCw.s 			page 14


 143:Core/Src/NRF24L01.c **** 	{
 144:Core/Src/NRF24L01.c **** 		NRF24L01_Write_Reg(FLUSH_TX,0xff);                 //æ¸…é™¤TX FIFOå¯„å­˜å™¨ 
 145:Core/Src/NRF24L01.c **** 		return MAX_TX; 
 146:Core/Src/NRF24L01.c **** 	}
 147:Core/Src/NRF24L01.c **** 	if(sta&TX_OK)                                        //å‘é€å®Œæˆ
 582              		.loc 1 147 2 is_stmt 1 view .LVU125
 583              		.loc 1 147 4 is_stmt 0 view .LVU126
 584 004c 14F0200F 		tst	r4, #32
 585 0050 07D1     		bne	.L39
 148:Core/Src/NRF24L01.c **** 	{
 149:Core/Src/NRF24L01.c **** 		return TX_OK;
 150:Core/Src/NRF24L01.c **** 	}
 151:Core/Src/NRF24L01.c **** 	return 0xff;                                         //å…¶ä»–åŸå› å‘é€å¤±è´¥
 586              		.loc 1 151 9 view .LVU127
 587 0052 FF20     		movs	r0, #255
 588              	.L38:
 152:Core/Src/NRF24L01.c **** }
 589              		.loc 1 152 1 view .LVU128
 590 0054 38BD     		pop	{r3, r4, r5, pc}
 591              	.L41:
 144:Core/Src/NRF24L01.c **** 		return MAX_TX; 
 592              		.loc 1 144 3 is_stmt 1 view .LVU129
 593 0056 FF21     		movs	r1, #255
 594 0058 E120     		movs	r0, #225
 595 005a FFF7FEFF 		bl	NRF24L01_Write_Reg
 596              	.LVL63:
 145:Core/Src/NRF24L01.c **** 	}
 597              		.loc 1 145 3 view .LVU130
 145:Core/Src/NRF24L01.c **** 	}
 598              		.loc 1 145 10 is_stmt 0 view .LVU131
 599 005e 1020     		movs	r0, #16
 600 0060 F8E7     		b	.L38
 601              	.L39:
 149:Core/Src/NRF24L01.c **** 	}
 602              		.loc 1 149 10 view .LVU132
 603 0062 2020     		movs	r0, #32
 604 0064 F6E7     		b	.L38
 605              	.L43:
 606 0066 00BF     		.align	2
 607              	.L42:
 608 0068 00040240 		.word	1073873920
 609 006c 00000240 		.word	1073872896
 610              		.cfi_endproc
 611              	.LFE136:
 613              		.section	.text.NRF24L01_RxPacket,"ax",%progbits
 614              		.align	1
 615              		.global	NRF24L01_RxPacket
 616              		.syntax unified
 617              		.thumb
 618              		.thumb_func
 619              		.fpu fpv4-sp-d16
 621              	NRF24L01_RxPacket:
 622              	.LVL64:
 623              	.LFB137:
 153:Core/Src/NRF24L01.c **** 
 154:Core/Src/NRF24L01.c **** /**
 155:Core/Src/NRF24L01.c ****   * å‡½æ•°åŠŸèƒ½:å¯åŠ¨NRF24L01æ¥æ”¶ä¸€æ¬¡æ•°æ®
ARM GAS  C:\Users\Kiana\AppData\Local\Temp\cc116mCw.s 			page 15


 156:Core/Src/NRF24L01.c ****   * è¾“å…¥å‚æ•°: æ— 
 157:Core/Src/NRF24L01.c ****   * è¿” å› å€¼: æ— 
 158:Core/Src/NRF24L01.c ****   * è¯´    æ˜ï¼šæ— 
 159:Core/Src/NRF24L01.c ****   *           
 160:Core/Src/NRF24L01.c ****   */ 
 161:Core/Src/NRF24L01.c **** uint8_t NRF24L01_RxPacket(uint8_t *rxbuf)
 162:Core/Src/NRF24L01.c **** {
 624              		.loc 1 162 1 is_stmt 1 view -0
 625              		.cfi_startproc
 626              		@ args = 0, pretend = 0, frame = 0
 627              		@ frame_needed = 0, uses_anonymous_args = 0
 628              		.loc 1 162 1 is_stmt 0 view .LVU134
 629 0000 38B5     		push	{r3, r4, r5, lr}
 630              	.LCFI12:
 631              		.cfi_def_cfa_offset 16
 632              		.cfi_offset 3, -16
 633              		.cfi_offset 4, -12
 634              		.cfi_offset 5, -8
 635              		.cfi_offset 14, -4
 636 0002 0546     		mov	r5, r0
 163:Core/Src/NRF24L01.c **** 	uint8_t sta;		    							   
 637              		.loc 1 163 2 is_stmt 1 view .LVU135
 164:Core/Src/NRF24L01.c **** 	sta=NRF24L01_Read_Reg(STATUS);  //è¯»å–çŠ¶æ€å¯„å­˜å™¨çš„å€¼    	 
 638              		.loc 1 164 2 view .LVU136
 639              		.loc 1 164 6 is_stmt 0 view .LVU137
 640 0004 0720     		movs	r0, #7
 641              	.LVL65:
 642              		.loc 1 164 6 view .LVU138
 643 0006 FFF7FEFF 		bl	NRF24L01_Read_Reg
 644              	.LVL66:
 645 000a 0446     		mov	r4, r0
 646              	.LVL67:
 165:Core/Src/NRF24L01.c **** 	NRF24L01_Write_Reg(NRF_WRITE_REG+STATUS,sta); //æ¸…é™¤TX_DSæˆ–MAX_RTä¸­æ–­æ ‡å¿—
 647              		.loc 1 165 2 is_stmt 1 view .LVU139
 648 000c 0146     		mov	r1, r0
 649 000e 2720     		movs	r0, #39
 650              	.LVL68:
 651              		.loc 1 165 2 is_stmt 0 view .LVU140
 652 0010 FFF7FEFF 		bl	NRF24L01_Write_Reg
 653              	.LVL69:
 166:Core/Src/NRF24L01.c **** 	if(sta&RX_OK)//æ¥æ”¶åˆ°æ•°æ®
 654              		.loc 1 166 2 is_stmt 1 view .LVU141
 655              		.loc 1 166 4 is_stmt 0 view .LVU142
 656 0014 14F0400F 		tst	r4, #64
 657 0018 01D1     		bne	.L48
 167:Core/Src/NRF24L01.c **** 	{
 168:Core/Src/NRF24L01.c **** 		NRF24L01_Read_Buf(RD_RX_PLOAD,rxbuf,RX_PLOAD_WIDTH);//è¯»å–æ•°æ®
 169:Core/Src/NRF24L01.c **** 		NRF24L01_Write_Reg(FLUSH_RX,0xff);//æ¸…é™¤RX FIFOå¯„å­˜å™¨ 
 170:Core/Src/NRF24L01.c **** 		return 0; 
 171:Core/Src/NRF24L01.c **** 	}	
 172:Core/Src/NRF24L01.c **** 	return 1;//æ²¡æ”¶åˆ°ä»»ä½•æ•°æ®
 658              		.loc 1 172 9 view .LVU143
 659 001a 0120     		movs	r0, #1
 660              	.L45:
 173:Core/Src/NRF24L01.c **** }					    
 661              		.loc 1 173 1 view .LVU144
 662 001c 38BD     		pop	{r3, r4, r5, pc}
ARM GAS  C:\Users\Kiana\AppData\Local\Temp\cc116mCw.s 			page 16


 663              	.LVL70:
 664              	.L48:
 168:Core/Src/NRF24L01.c **** 		NRF24L01_Write_Reg(FLUSH_RX,0xff);//æ¸…é™¤RX FIFOå¯„å­˜å™¨ 
 665              		.loc 1 168 3 is_stmt 1 view .LVU145
 666 001e 2022     		movs	r2, #32
 667 0020 2946     		mov	r1, r5
 668 0022 6120     		movs	r0, #97
 669 0024 FFF7FEFF 		bl	NRF24L01_Read_Buf
 670              	.LVL71:
 169:Core/Src/NRF24L01.c **** 		return 0; 
 671              		.loc 1 169 3 view .LVU146
 672 0028 FF21     		movs	r1, #255
 673 002a E220     		movs	r0, #226
 674 002c FFF7FEFF 		bl	NRF24L01_Write_Reg
 675              	.LVL72:
 170:Core/Src/NRF24L01.c **** 	}	
 676              		.loc 1 170 3 view .LVU147
 170:Core/Src/NRF24L01.c **** 	}	
 677              		.loc 1 170 10 is_stmt 0 view .LVU148
 678 0030 0020     		movs	r0, #0
 679 0032 F3E7     		b	.L45
 680              		.cfi_endproc
 681              	.LFE137:
 683              		.section	.text.NRF24L01_RX_Mode,"ax",%progbits
 684              		.align	1
 685              		.global	NRF24L01_RX_Mode
 686              		.syntax unified
 687              		.thumb
 688              		.thumb_func
 689              		.fpu fpv4-sp-d16
 691              	NRF24L01_RX_Mode:
 692              	.LFB138:
 174:Core/Src/NRF24L01.c **** 
 175:Core/Src/NRF24L01.c **** /**
 176:Core/Src/NRF24L01.c ****   * å‡½æ•°åŠŸèƒ½: è¯¥å‡½æ•°åˆå§‹åŒ–NRF24L01åˆ°RXæ¨¡å¼
 177:Core/Src/NRF24L01.c ****   * è¾“å…¥å‚æ•°: æ— 
 178:Core/Src/NRF24L01.c ****   * è¿” å› å€¼: æ— 
 179:Core/Src/NRF24L01.c ****   * è¯´    æ˜ï¼šæ— 
 180:Core/Src/NRF24L01.c ****   *           
 181:Core/Src/NRF24L01.c ****   */ 
 182:Core/Src/NRF24L01.c **** void NRF24L01_RX_Mode(void)
 183:Core/Src/NRF24L01.c **** {
 693              		.loc 1 183 1 is_stmt 1 view -0
 694              		.cfi_startproc
 695              		@ args = 0, pretend = 0, frame = 0
 696              		@ frame_needed = 0, uses_anonymous_args = 0
 697 0000 10B5     		push	{r4, lr}
 698              	.LCFI13:
 699              		.cfi_def_cfa_offset 8
 700              		.cfi_offset 4, -8
 701              		.cfi_offset 14, -4
 184:Core/Src/NRF24L01.c **** 	NRF24L01_CE_LOW();	  
 702              		.loc 1 184 2 view .LVU150
 703 0002 174C     		ldr	r4, .L51
 704 0004 0022     		movs	r2, #0
 705 0006 4FF48061 		mov	r1, #1024
 706 000a 2046     		mov	r0, r4
ARM GAS  C:\Users\Kiana\AppData\Local\Temp\cc116mCw.s 			page 17


 707 000c FFF7FEFF 		bl	HAL_GPIO_WritePin
 708              	.LVL73:
 185:Core/Src/NRF24L01.c ****   NRF24L01_Write_Reg(NRF_WRITE_REG+CONFIG, 0x0F);//é…ç½®åŸºæœ¬å·¥ä½œæ¨¡å¼çš„å‚æ•°;PWR_UP,EN_CRC,
 709              		.loc 1 185 3 view .LVU151
 710 0010 0F21     		movs	r1, #15
 711 0012 2020     		movs	r0, #32
 712 0014 FFF7FEFF 		bl	NRF24L01_Write_Reg
 713              	.LVL74:
 186:Core/Src/NRF24L01.c ****   NRF24L01_Write_Reg(NRF_WRITE_REG+EN_AA,0x01);    //ä½¿èƒ½é€šé“0çš„è‡ªåŠ¨åº”ç­”    
 714              		.loc 1 186 3 view .LVU152
 715 0018 0121     		movs	r1, #1
 716 001a 2120     		movs	r0, #33
 717 001c FFF7FEFF 		bl	NRF24L01_Write_Reg
 718              	.LVL75:
 187:Core/Src/NRF24L01.c ****   NRF24L01_Write_Reg(NRF_WRITE_REG+EN_RXADDR,0x01);//ä½¿èƒ½é€šé“0çš„æ¥æ”¶åœ°å€  	 
 719              		.loc 1 187 3 view .LVU153
 720 0020 0121     		movs	r1, #1
 721 0022 2220     		movs	r0, #34
 722 0024 FFF7FEFF 		bl	NRF24L01_Write_Reg
 723              	.LVL76:
 188:Core/Src/NRF24L01.c ****   NRF24L01_Write_Reg(NRF_WRITE_REG+RF_CH,40);	     //è®¾ç½®RFé€šä¿¡é¢‘ç‡		  
 724              		.loc 1 188 3 view .LVU154
 725 0028 2821     		movs	r1, #40
 726 002a 2520     		movs	r0, #37
 727 002c FFF7FEFF 		bl	NRF24L01_Write_Reg
 728              	.LVL77:
 189:Core/Src/NRF24L01.c ****   NRF24L01_Write_Reg(NRF_WRITE_REG+RF_SETUP,0x0f);//è®¾ç½®TXå‘å°„å‚æ•°,0dbå¢ç›Š,2Mbps,ä½å™ªå£°å
 729              		.loc 1 189 3 view .LVU155
 730 0030 0F21     		movs	r1, #15
 731 0032 2620     		movs	r0, #38
 732 0034 FFF7FEFF 		bl	NRF24L01_Write_Reg
 733              	.LVL78:
 190:Core/Src/NRF24L01.c ****   
 191:Core/Src/NRF24L01.c ****   NRF24L01_Write_Reg(NRF_WRITE_REG+RX_PW_P0,RX_PLOAD_WIDTH);//é€‰æ‹©é€šé“0çš„æœ‰æ•ˆæ•°æ®å®½åº¦ 	 
 734              		.loc 1 191 3 view .LVU156
 735 0038 2021     		movs	r1, #32
 736 003a 3120     		movs	r0, #49
 737 003c FFF7FEFF 		bl	NRF24L01_Write_Reg
 738              	.LVL79:
 192:Core/Src/NRF24L01.c ****     
 193:Core/Src/NRF24L01.c ****   NRF24L01_Write_Buf(NRF_WRITE_REG+RX_ADDR_P0,(uint8_t*)RX_ADDRESS,RX_ADR_WIDTH);//å†™RXèŠ‚ç‚¹åœ°å
 739              		.loc 1 193 3 view .LVU157
 740 0040 0522     		movs	r2, #5
 741 0042 0849     		ldr	r1, .L51+4
 742 0044 2A20     		movs	r0, #42
 743 0046 FFF7FEFF 		bl	NRF24L01_Write_Buf
 744              	.LVL80:
 194:Core/Src/NRF24L01.c **** 	
 195:Core/Src/NRF24L01.c ****   NRF24L01_CE_HIGH(); //CEä¸ºé«˜,è¿›å…¥æ¥æ”¶æ¨¡å¼ 
 745              		.loc 1 195 3 view .LVU158
 746 004a 0122     		movs	r2, #1
 747 004c 4FF48061 		mov	r1, #1024
 748 0050 2046     		mov	r0, r4
 749 0052 FFF7FEFF 		bl	HAL_GPIO_WritePin
 750              	.LVL81:
 196:Core/Src/NRF24L01.c ****   HAL_Delay(1);
 751              		.loc 1 196 3 view .LVU159
ARM GAS  C:\Users\Kiana\AppData\Local\Temp\cc116mCw.s 			page 18


 752 0056 0120     		movs	r0, #1
 753 0058 FFF7FEFF 		bl	HAL_Delay
 754              	.LVL82:
 197:Core/Src/NRF24L01.c **** }						 
 755              		.loc 1 197 1 is_stmt 0 view .LVU160
 756 005c 10BD     		pop	{r4, pc}
 757              	.L52:
 758 005e 00BF     		.align	2
 759              	.L51:
 760 0060 00040240 		.word	1073873920
 761 0064 00000000 		.word	.LANCHOR0
 762              		.cfi_endproc
 763              	.LFE138:
 765              		.section	.text.NRF24L01_TX_Mode,"ax",%progbits
 766              		.align	1
 767              		.global	NRF24L01_TX_Mode
 768              		.syntax unified
 769              		.thumb
 770              		.thumb_func
 771              		.fpu fpv4-sp-d16
 773              	NRF24L01_TX_Mode:
 774              	.LFB139:
 198:Core/Src/NRF24L01.c **** 
 199:Core/Src/NRF24L01.c **** /**
 200:Core/Src/NRF24L01.c ****   * å‡½æ•°åŠŸèƒ½: è¯¥å‡½æ•°åˆå§‹åŒ–NRF24L01åˆ°TXæ¨¡å¼
 201:Core/Src/NRF24L01.c ****   * è¾“å…¥å‚æ•°: æ— 
 202:Core/Src/NRF24L01.c ****   * è¿” å› å€¼: æ— 
 203:Core/Src/NRF24L01.c ****   * è¯´    æ˜ï¼šæ— 
 204:Core/Src/NRF24L01.c ****   *           
 205:Core/Src/NRF24L01.c ****   */ 
 206:Core/Src/NRF24L01.c **** void NRF24L01_TX_Mode(void)
 207:Core/Src/NRF24L01.c **** {														 
 775              		.loc 1 207 1 is_stmt 1 view -0
 776              		.cfi_startproc
 777              		@ args = 0, pretend = 0, frame = 0
 778              		@ frame_needed = 0, uses_anonymous_args = 0
 779 0000 10B5     		push	{r4, lr}
 780              	.LCFI14:
 781              		.cfi_def_cfa_offset 8
 782              		.cfi_offset 4, -8
 783              		.cfi_offset 14, -4
 208:Core/Src/NRF24L01.c **** 	NRF24L01_CE_LOW();	    
 784              		.loc 1 208 2 view .LVU162
 785 0002 194C     		ldr	r4, .L55
 786 0004 0022     		movs	r2, #0
 787 0006 4FF48061 		mov	r1, #1024
 788 000a 2046     		mov	r0, r4
 789 000c FFF7FEFF 		bl	HAL_GPIO_WritePin
 790              	.LVL83:
 209:Core/Src/NRF24L01.c ****   NRF24L01_Write_Buf(NRF_WRITE_REG+TX_ADDR,(uint8_t*)TX_ADDRESS,TX_ADR_WIDTH);//å†™TXèŠ‚ç‚¹åœ°å€ 
 791              		.loc 1 209 3 view .LVU163
 792 0010 0522     		movs	r2, #5
 793 0012 1649     		ldr	r1, .L55+4
 794 0014 3020     		movs	r0, #48
 795 0016 FFF7FEFF 		bl	NRF24L01_Write_Buf
 796              	.LVL84:
 210:Core/Src/NRF24L01.c ****   NRF24L01_Write_Buf(NRF_WRITE_REG+RX_ADDR_P0,(uint8_t*)RX_ADDRESS,RX_ADR_WIDTH); //è®¾ç½®TXèŠ‚ç‚¹å
ARM GAS  C:\Users\Kiana\AppData\Local\Temp\cc116mCw.s 			page 19


 797              		.loc 1 210 3 view .LVU164
 798 001a 0522     		movs	r2, #5
 799 001c 1449     		ldr	r1, .L55+8
 800 001e 2A20     		movs	r0, #42
 801 0020 FFF7FEFF 		bl	NRF24L01_Write_Buf
 802              	.LVL85:
 211:Core/Src/NRF24L01.c **** 
 212:Core/Src/NRF24L01.c ****   NRF24L01_Write_Reg(NRF_WRITE_REG+EN_AA,0x01);     //ä½¿èƒ½é€šé“0çš„è‡ªåŠ¨åº”ç­”    
 803              		.loc 1 212 3 view .LVU165
 804 0024 0121     		movs	r1, #1
 805 0026 2120     		movs	r0, #33
 806 0028 FFF7FEFF 		bl	NRF24L01_Write_Reg
 807              	.LVL86:
 213:Core/Src/NRF24L01.c ****   NRF24L01_Write_Reg(NRF_WRITE_REG+EN_RXADDR,0x01); //ä½¿èƒ½é€šé“0çš„æ¥æ”¶åœ°å€  
 808              		.loc 1 213 3 view .LVU166
 809 002c 0121     		movs	r1, #1
 810 002e 2220     		movs	r0, #34
 811 0030 FFF7FEFF 		bl	NRF24L01_Write_Reg
 812              	.LVL87:
 214:Core/Src/NRF24L01.c ****   NRF24L01_Write_Reg(NRF_WRITE_REG+SETUP_RETR,0xff);//è®¾ç½®è‡ªåŠ¨é‡å‘é—´éš”æ—¶é—´:4000us + 86us;
 813              		.loc 1 214 3 view .LVU167
 814 0034 FF21     		movs	r1, #255
 815 0036 2420     		movs	r0, #36
 816 0038 FFF7FEFF 		bl	NRF24L01_Write_Reg
 817              	.LVL88:
 215:Core/Src/NRF24L01.c ****   NRF24L01_Write_Reg(NRF_WRITE_REG+RF_CH,40);       //è®¾ç½®RFé€šé“ä¸º40
 818              		.loc 1 215 3 view .LVU168
 819 003c 2821     		movs	r1, #40
 820 003e 2520     		movs	r0, #37
 821 0040 FFF7FEFF 		bl	NRF24L01_Write_Reg
 822              	.LVL89:
 216:Core/Src/NRF24L01.c ****   NRF24L01_Write_Reg(NRF_WRITE_REG+RF_SETUP,0x0f);  //è®¾ç½®TXå‘å°„å‚æ•°,0dbå¢ç›Š,2Mbps,ä½å™ªå£
 823              		.loc 1 216 3 view .LVU169
 824 0044 0F21     		movs	r1, #15
 825 0046 2620     		movs	r0, #38
 826 0048 FFF7FEFF 		bl	NRF24L01_Write_Reg
 827              	.LVL90:
 217:Core/Src/NRF24L01.c ****   NRF24L01_Write_Reg(NRF_WRITE_REG+CONFIG,0x0e);    //é…ç½®åŸºæœ¬å·¥ä½œæ¨¡å¼çš„å‚æ•°;PWR_UP,EN_C
 828              		.loc 1 217 3 view .LVU170
 829 004c 0E21     		movs	r1, #14
 830 004e 2020     		movs	r0, #32
 831 0050 FFF7FEFF 		bl	NRF24L01_Write_Reg
 832              	.LVL91:
 218:Core/Src/NRF24L01.c **** 	NRF24L01_CE_HIGH();//CEä¸ºé«˜,10usåå¯åŠ¨å‘é€
 833              		.loc 1 218 2 view .LVU171
 834 0054 0122     		movs	r2, #1
 835 0056 4FF48061 		mov	r1, #1024
 836 005a 2046     		mov	r0, r4
 837 005c FFF7FEFF 		bl	HAL_GPIO_WritePin
 838              	.LVL92:
 219:Core/Src/NRF24L01.c ****   HAL_Delay(1);
 839              		.loc 1 219 3 view .LVU172
 840 0060 0120     		movs	r0, #1
 841 0062 FFF7FEFF 		bl	HAL_Delay
 842              	.LVL93:
 220:Core/Src/NRF24L01.c **** }
 843              		.loc 1 220 1 is_stmt 0 view .LVU173
ARM GAS  C:\Users\Kiana\AppData\Local\Temp\cc116mCw.s 			page 20


 844 0066 10BD     		pop	{r4, pc}
 845              	.L56:
 846              		.align	2
 847              	.L55:
 848 0068 00040240 		.word	1073873920
 849 006c 00000000 		.word	.LANCHOR1
 850 0070 00000000 		.word	.LANCHOR0
 851              		.cfi_endproc
 852              	.LFE139:
 854              		.section	.text.NRF24L01_PacketAckData,"ax",%progbits
 855              		.align	1
 856              		.global	NRF24L01_PacketAckData
 857              		.syntax unified
 858              		.thumb
 859              		.thumb_func
 860              		.fpu fpv4-sp-d16
 862              	NRF24L01_PacketAckData:
 863              	.LVL94:
 864              	.LFB140:
 221:Core/Src/NRF24L01.c **** 
 222:Core/Src/NRF24L01.c **** 
 223:Core/Src/NRF24L01.c **** 
 224:Core/Src/NRF24L01.c **** 
 225:Core/Src/NRF24L01.c **** /**
 226:Core/Src/NRF24L01.c ****  * å‡½æ•°åŠŸèƒ½:å‘é€æ•°æ®åŒ…ï¼Œç”¨äºå‘é€æ¨¡å¼
 227:Core/Src/NRF24L01.c ****  * 
 228:Core/Src/NRF24L01.c ****  * 
 229:Core/Src/NRF24L01.c ****  */
 230:Core/Src/NRF24L01.c **** void NRF24L01_PacketAckData(uint8_t* pBuf,uint8_t len)
 231:Core/Src/NRF24L01.c **** {
 865              		.loc 1 231 1 is_stmt 1 view -0
 866              		.cfi_startproc
 867              		@ args = 0, pretend = 0, frame = 0
 868              		@ frame_needed = 0, uses_anonymous_args = 0
 869              		.loc 1 231 1 is_stmt 0 view .LVU175
 870 0000 70B5     		push	{r4, r5, r6, lr}
 871              	.LCFI15:
 872              		.cfi_def_cfa_offset 16
 873              		.cfi_offset 4, -16
 874              		.cfi_offset 5, -12
 875              		.cfi_offset 6, -8
 876              		.cfi_offset 14, -4
 877 0002 0446     		mov	r4, r0
 878 0004 0D46     		mov	r5, r1
 232:Core/Src/NRF24L01.c **** 	NRF24L01_CE_LOW();	
 879              		.loc 1 232 2 is_stmt 1 view .LVU176
 880 0006 094E     		ldr	r6, .L59
 881 0008 0022     		movs	r2, #0
 882 000a 4FF48061 		mov	r1, #1024
 883              	.LVL95:
 884              		.loc 1 232 2 is_stmt 0 view .LVU177
 885 000e 3046     		mov	r0, r6
 886              	.LVL96:
 887              		.loc 1 232 2 view .LVU178
 888 0010 FFF7FEFF 		bl	HAL_GPIO_WritePin
 889              	.LVL97:
 233:Core/Src/NRF24L01.c **** 	NRF24L01_Write_Buf(W_ACK_PAYLOAD,pBuf,len);
ARM GAS  C:\Users\Kiana\AppData\Local\Temp\cc116mCw.s 			page 21


 890              		.loc 1 233 2 is_stmt 1 view .LVU179
 891 0014 2A46     		mov	r2, r5
 892 0016 2146     		mov	r1, r4
 893 0018 A820     		movs	r0, #168
 894 001a FFF7FEFF 		bl	NRF24L01_Write_Buf
 895              	.LVL98:
 234:Core/Src/NRF24L01.c **** 	NRF24L01_CE_HIGH();	
 896              		.loc 1 234 2 view .LVU180
 897 001e 0122     		movs	r2, #1
 898 0020 4FF48061 		mov	r1, #1024
 899 0024 3046     		mov	r0, r6
 900 0026 FFF7FEFF 		bl	HAL_GPIO_WritePin
 901              	.LVL99:
 235:Core/Src/NRF24L01.c **** }
 902              		.loc 1 235 1 is_stmt 0 view .LVU181
 903 002a 70BD     		pop	{r4, r5, r6, pc}
 904              	.LVL100:
 905              	.L60:
 906              		.loc 1 235 1 view .LVU182
 907              		.align	2
 908              	.L59:
 909 002c 00040240 		.word	1073873920
 910              		.cfi_endproc
 911              	.LFE140:
 913              		.global	RX_ADDRESS
 914              		.global	TX_ADDRESS
 915              		.section	.rodata.RX_ADDRESS,"a"
 916              		.align	2
 917              		.set	.LANCHOR0,. + 0
 920              	RX_ADDRESS:
 921 0000 B0431010 		.ascii	"\260C\020\020\001"
 921      01
 922              		.section	.rodata.TX_ADDRESS,"a"
 923              		.align	2
 924              		.set	.LANCHOR1,. + 0
 927              	TX_ADDRESS:
 928 0000 B0431010 		.ascii	"\260C\020\020\001"
 928      01
 929              		.text
 930              	.Letext0:
 931              		.file 2 "d:\\vs_code_stm32\\9 2019-q4-major\\arm-none-eabi\\include\\machine\\_default_types.h"
 932              		.file 3 "d:\\vs_code_stm32\\9 2019-q4-major\\arm-none-eabi\\include\\sys\\_stdint.h"
 933              		.file 4 "Drivers/CMSIS/Include/core_cm4.h"
 934              		.file 5 "Drivers/CMSIS/Device/ST/STM32F4xx/Include/system_stm32f4xx.h"
 935              		.file 6 "Drivers/CMSIS/Device/ST/STM32F4xx/Include/stm32f401xc.h"
 936              		.file 7 "Drivers/STM32F4xx_HAL_Driver/Inc/stm32f4xx_hal_def.h"
 937              		.file 8 "Drivers/STM32F4xx_HAL_Driver/Inc/stm32f4xx_hal_gpio.h"
 938              		.file 9 "Drivers/STM32F4xx_HAL_Driver/Inc/stm32f4xx_hal_dma.h"
 939              		.file 10 "Drivers/STM32F4xx_HAL_Driver/Inc/stm32f4xx_hal_spi.h"
 940              		.file 11 "Drivers/STM32F4xx_HAL_Driver/Inc/stm32f4xx_hal.h"
 941              		.file 12 "Core/Inc/NRF24L01.h"
ARM GAS  C:\Users\Kiana\AppData\Local\Temp\cc116mCw.s 			page 22

