ARM GAS  C:\Users\Kiana\AppData\Local\Temp\ccL5QKds.s 			page 1


   1              		.cpu cortex-m4
   2              		.eabi_attribute 27, 1
   3              		.eabi_attribute 28, 1
   4              		.eabi_attribute 20, 1
   5              		.eabi_attribute 21, 1
   6              		.eabi_attribute 23, 3
   7              		.eabi_attribute 24, 1
   8              		.eabi_attribute 25, 1
   9              		.eabi_attribute 26, 1
  10              		.eabi_attribute 30, 1
  11              		.eabi_attribute 34, 1
  12              		.eabi_attribute 18, 4
  13              		.file	"NRF24L01.c"
  14              		.text
  15              	.Ltext0:
  16              		.cfi_sections	.debug_frame
  17              		.section	.text.SPIx_ReadWriteByte,"ax",%progbits
  18              		.align	1
  19              		.global	SPIx_ReadWriteByte
  20              		.arch armv7e-m
  21              		.syntax unified
  22              		.thumb
  23              		.thumb_func
  24              		.fpu fpv4-sp-d16
  26              	SPIx_ReadWriteByte:
  27              	.LVL0:
  28              	.LFB133:
  29              		.file 1 "Core/Src/NRF24L01.c"
   1:Core/Src/NRF24L01.c **** /* åŒ…å«å¤´æ–‡ä»¶ ----------------------------------------------------------------*/
   2:Core/Src/NRF24L01.c **** #include "NRF24L01.h"
   3:Core/Src/NRF24L01.c **** 
   4:Core/Src/NRF24L01.c **** /* ç§æœ‰ç±»å‹å®šä¹‰ --------------------------------------------------------------*/
   5:Core/Src/NRF24L01.c **** /* ç§æœ‰å®å®šä¹‰ ----------------------------------------------------------------*/              
   6:Core/Src/NRF24L01.c **** /* ç§æœ‰å˜é‡ ------------------------------------------------------------------*/
   7:Core/Src/NRF24L01.c **** 
   8:Core/Src/NRF24L01.c **** const uint8_t TX_ADDRESS0[TX_ADR_WIDTH]={0xb0,0x43,0x10,0x10,0x01}; //å‘é€åœ°å€
   9:Core/Src/NRF24L01.c **** const uint8_t TX_ADDRESS1[TX_ADR_WIDTH]={0xb1,0x43,0x10,0x10,0x02}; //å‘é€åœ°å€
  10:Core/Src/NRF24L01.c **** const uint8_t TX_ADDRESS2[TX_ADR_WIDTH]={0xb2,0x43,0x10,0x10,0x02}; //å‘é€åœ°å€
  11:Core/Src/NRF24L01.c **** const uint8_t TX_ADDRESS3[TX_ADR_WIDTH]={0xb3,0x43,0x10,0x10,0x02}; //å‘é€åœ°å€
  12:Core/Src/NRF24L01.c **** 
  13:Core/Src/NRF24L01.c **** const uint8_t RX_ADDRESS0[RX_ADR_WIDTH]={0xb0,0x43,0x10,0x10,0x01};
  14:Core/Src/NRF24L01.c **** const uint8_t RX_ADDRESS1[RX_ADR_WIDTH]={0xb1,0x43,0x10,0x10,0x02};
  15:Core/Src/NRF24L01.c **** const uint8_t RX_ADDRESS2[RX_ADR_WIDTH]={0xb2,0x43,0x10,0x10,0x02};
  16:Core/Src/NRF24L01.c **** const uint8_t RX_ADDRESS3[RX_ADR_WIDTH]={0xb3,0x43,0x10,0x10,0x02};
  17:Core/Src/NRF24L01.c **** 
  18:Core/Src/NRF24L01.c **** /* æ‰©å±•å˜é‡ ------------------------------------------------------------------*/
  19:Core/Src/NRF24L01.c **** /* ç§æœ‰å‡½æ•°åŸå½¢ --------------------------------------------------------------*/
  20:Core/Src/NRF24L01.c **** /* å‡½æ•°ä½“ --------------------------------------------------------------------*/
  21:Core/Src/NRF24L01.c **** 
  22:Core/Src/NRF24L01.c **** 
  23:Core/Src/NRF24L01.c **** /**
  24:Core/Src/NRF24L01.c ****   * å‡½æ•°åŠŸèƒ½: å¾€ä¸²è¡ŒFlashè¯»å–å†™å…¥ä¸€ä¸ªå­—èŠ‚æ•°æ®å¹¶æ¥æ”¶ä¸€ä¸ªå­—èŠ‚æ•°æ®
  25:Core/Src/NRF24L01.c ****   * è¾“å…¥å‚æ•°: byteï¼šå¾…å‘é€æ•°æ®
  26:Core/Src/NRF24L01.c ****   * è¿” å› å€¼: uint8_tï¼šæ¥æ”¶åˆ°çš„æ•°æ®
  27:Core/Src/NRF24L01.c ****   * è¯´    æ˜ï¼šæ— 
  28:Core/Src/NRF24L01.c ****   */
  29:Core/Src/NRF24L01.c **** uint8_t SPIx_ReadWriteByte(SPI_HandleTypeDef* hspi,uint8_t byte)
ARM GAS  C:\Users\Kiana\AppData\Local\Temp\ccL5QKds.s 			page 2


  30:Core/Src/NRF24L01.c **** {
  30              		.loc 1 30 1 view -0
  31              		.cfi_startproc
  32              		@ args = 0, pretend = 0, frame = 8
  33              		@ frame_needed = 0, uses_anonymous_args = 0
  34              		.loc 1 30 1 is_stmt 0 view .LVU1
  35 0000 00B5     		push	{lr}
  36              	.LCFI0:
  37              		.cfi_def_cfa_offset 4
  38              		.cfi_offset 14, -4
  39 0002 85B0     		sub	sp, sp, #20
  40              	.LCFI1:
  41              		.cfi_def_cfa_offset 24
  31:Core/Src/NRF24L01.c ****   uint8_t d_read,d_send=byte;
  42              		.loc 1 31 3 is_stmt 1 view .LVU2
  43              		.loc 1 31 18 is_stmt 0 view .LVU3
  44 0004 8DF80E10 		strb	r1, [sp, #14]
  32:Core/Src/NRF24L01.c ****   if(HAL_SPI_TransmitReceive(hspi,&d_send,&d_read,1,0xFF)!=HAL_OK)
  45              		.loc 1 32 3 is_stmt 1 view .LVU4
  46              		.loc 1 32 6 is_stmt 0 view .LVU5
  47 0008 FF23     		movs	r3, #255
  48 000a 0093     		str	r3, [sp]
  49 000c 0123     		movs	r3, #1
  50 000e 0DF10F02 		add	r2, sp, #15
  51 0012 0DF10E01 		add	r1, sp, #14
  52              	.LVL1:
  53              		.loc 1 32 6 view .LVU6
  54 0016 FFF7FEFF 		bl	HAL_SPI_TransmitReceive
  55              	.LVL2:
  56              		.loc 1 32 5 view .LVU7
  57 001a 10B1     		cbz	r0, .L2
  33:Core/Src/NRF24L01.c ****   {
  34:Core/Src/NRF24L01.c ****     d_read=0xFF;
  58              		.loc 1 34 5 is_stmt 1 view .LVU8
  59              		.loc 1 34 11 is_stmt 0 view .LVU9
  60 001c FF23     		movs	r3, #255
  61 001e 8DF80F30 		strb	r3, [sp, #15]
  62              	.L2:
  35:Core/Src/NRF24L01.c ****   }
  36:Core/Src/NRF24L01.c ****   return d_read; 
  63              		.loc 1 36 3 is_stmt 1 view .LVU10
  37:Core/Src/NRF24L01.c **** }
  64              		.loc 1 37 1 is_stmt 0 view .LVU11
  65 0022 9DF80F00 		ldrb	r0, [sp, #15]	@ zero_extendqisi2
  66 0026 05B0     		add	sp, sp, #20
  67              	.LCFI2:
  68              		.cfi_def_cfa_offset 4
  69              		@ sp needed
  70 0028 5DF804FB 		ldr	pc, [sp], #4
  71              		.cfi_endproc
  72              	.LFE133:
  74              		.section	.text.NRF24L01_Write_Reg,"ax",%progbits
  75              		.align	1
  76              		.global	NRF24L01_Write_Reg
  77              		.syntax unified
  78              		.thumb
  79              		.thumb_func
ARM GAS  C:\Users\Kiana\AppData\Local\Temp\ccL5QKds.s 			page 3


  80              		.fpu fpv4-sp-d16
  82              	NRF24L01_Write_Reg:
  83              	.LVL3:
  84              	.LFB135:
  38:Core/Src/NRF24L01.c **** 
  39:Core/Src/NRF24L01.c **** /**
  40:Core/Src/NRF24L01.c ****   * å‡½æ•°åŠŸèƒ½: æ£€æµ‹24L01æ˜¯å¦å­˜åœ¨
  41:Core/Src/NRF24L01.c ****   * è¾“å…¥å‚æ•°: æ— 
  42:Core/Src/NRF24L01.c ****   * è¿” å› å€¼: 0ï¼ŒæˆåŠŸ;1ï¼Œå¤±è´¥
  43:Core/Src/NRF24L01.c ****   * è¯´    æ˜ï¼šæ—           
  44:Core/Src/NRF24L01.c ****   */ 
  45:Core/Src/NRF24L01.c **** uint8_t NRF24L01_Check(void)
  46:Core/Src/NRF24L01.c **** {
  47:Core/Src/NRF24L01.c **** 	uint8_t buf[5]={0XA5,0XA5,0XA5,0XA5,0XA5};
  48:Core/Src/NRF24L01.c **** 	uint8_t i;
  49:Core/Src/NRF24L01.c ****   
  50:Core/Src/NRF24L01.c **** 	NRF24L01_Write_Buf(NRF_WRITE_REG+TX_ADDR,buf,5);//å†™å…¥5ä¸ªå­—èŠ‚çš„åœ°å€.	
  51:Core/Src/NRF24L01.c **** 	NRF24L01_Read_Buf(TX_ADDR,buf,5); //è¯»å‡ºå†™å…¥çš„åœ°å€  
  52:Core/Src/NRF24L01.c **** 	for(i=0;i<5;i++)if(buf[i]!=0XA5)break;	 							   
  53:Core/Src/NRF24L01.c **** 	if(i!=5)return 1;//æ£€æµ‹24L01é”™è¯¯	
  54:Core/Src/NRF24L01.c **** 	return 0;		 //æ£€æµ‹åˆ°24L01
  55:Core/Src/NRF24L01.c **** }	 	 
  56:Core/Src/NRF24L01.c **** 
  57:Core/Src/NRF24L01.c **** /**
  58:Core/Src/NRF24L01.c ****   * å‡½æ•°åŠŸèƒ½: SPIå†™å¯„å­˜å™¨
  59:Core/Src/NRF24L01.c ****   * è¾“å…¥å‚æ•°: æ— 
  60:Core/Src/NRF24L01.c ****   * è¿” å› å€¼: æ— 
  61:Core/Src/NRF24L01.c ****   * è¯´    æ˜ï¼šreg:æŒ‡å®šå¯„å­˜å™¨åœ°å€
  62:Core/Src/NRF24L01.c ****   *           
  63:Core/Src/NRF24L01.c ****   */ 
  64:Core/Src/NRF24L01.c **** uint8_t NRF24L01_Write_Reg(uint8_t reg,uint8_t value)
  65:Core/Src/NRF24L01.c **** {
  85              		.loc 1 65 1 is_stmt 1 view -0
  86              		.cfi_startproc
  87              		@ args = 0, pretend = 0, frame = 0
  88              		@ frame_needed = 0, uses_anonymous_args = 0
  89              		.loc 1 65 1 is_stmt 0 view .LVU13
  90 0000 F8B5     		push	{r3, r4, r5, r6, r7, lr}
  91              	.LCFI3:
  92              		.cfi_def_cfa_offset 24
  93              		.cfi_offset 3, -24
  94              		.cfi_offset 4, -20
  95              		.cfi_offset 5, -16
  96              		.cfi_offset 6, -12
  97              		.cfi_offset 7, -8
  98              		.cfi_offset 14, -4
  99 0002 0446     		mov	r4, r0
 100 0004 0D46     		mov	r5, r1
  66:Core/Src/NRF24L01.c **** 	uint8_t status;	
 101              		.loc 1 66 2 is_stmt 1 view .LVU14
  67:Core/Src/NRF24L01.c ****   NRF24L01_SPI_CS_ENABLE();                 //ä½¿èƒ½SPIä¼ è¾“
 102              		.loc 1 67 3 view .LVU15
 103 0006 0C4E     		ldr	r6, .L6
 104 0008 0022     		movs	r2, #0
 105 000a 4FF48051 		mov	r1, #4096
 106              	.LVL4:
 107              		.loc 1 67 3 is_stmt 0 view .LVU16
ARM GAS  C:\Users\Kiana\AppData\Local\Temp\ccL5QKds.s 			page 4


 108 000e 3046     		mov	r0, r6
 109              	.LVL5:
 110              		.loc 1 67 3 view .LVU17
 111 0010 FFF7FEFF 		bl	HAL_GPIO_WritePin
 112              	.LVL6:
  68:Core/Src/NRF24L01.c ****   status =SPIx_ReadWriteByte(&hspi_NRF24L01,reg);//å‘é€å¯„å­˜å™¨å· 
 113              		.loc 1 68 3 is_stmt 1 view .LVU18
 114              		.loc 1 68 11 is_stmt 0 view .LVU19
 115 0014 094F     		ldr	r7, .L6+4
 116 0016 2146     		mov	r1, r4
 117 0018 3846     		mov	r0, r7
 118 001a FFF7FEFF 		bl	SPIx_ReadWriteByte
 119              	.LVL7:
 120 001e 0446     		mov	r4, r0
 121              	.LVL8:
  69:Core/Src/NRF24L01.c ****   SPIx_ReadWriteByte(&hspi_NRF24L01,value);      //å†™å…¥å¯„å­˜å™¨çš„å€¼
 122              		.loc 1 69 3 is_stmt 1 view .LVU20
 123 0020 2946     		mov	r1, r5
 124 0022 3846     		mov	r0, r7
 125 0024 FFF7FEFF 		bl	SPIx_ReadWriteByte
 126              	.LVL9:
  70:Core/Src/NRF24L01.c ****   NRF24L01_SPI_CS_DISABLE();                 //ç¦æ­¢SPIä¼ è¾“	   
 127              		.loc 1 70 3 view .LVU21
 128 0028 0122     		movs	r2, #1
 129 002a 4FF48051 		mov	r1, #4096
 130 002e 3046     		mov	r0, r6
 131 0030 FFF7FEFF 		bl	HAL_GPIO_WritePin
 132              	.LVL10:
  71:Core/Src/NRF24L01.c ****   return(status);       			//è¿”å›çŠ¶æ€å€¼
 133              		.loc 1 71 3 view .LVU22
  72:Core/Src/NRF24L01.c **** }
 134              		.loc 1 72 1 is_stmt 0 view .LVU23
 135 0034 2046     		mov	r0, r4
 136 0036 F8BD     		pop	{r3, r4, r5, r6, r7, pc}
 137              	.LVL11:
 138              	.L7:
 139              		.loc 1 72 1 view .LVU24
 140              		.align	2
 141              	.L6:
 142 0038 00040240 		.word	1073873920
 143 003c 00000000 		.word	hspi2
 144              		.cfi_endproc
 145              	.LFE135:
 147              		.section	.text.NRF24L01_Read_Reg,"ax",%progbits
 148              		.align	1
 149              		.global	NRF24L01_Read_Reg
 150              		.syntax unified
 151              		.thumb
 152              		.thumb_func
 153              		.fpu fpv4-sp-d16
 155              	NRF24L01_Read_Reg:
 156              	.LVL12:
 157              	.LFB136:
  73:Core/Src/NRF24L01.c **** 
  74:Core/Src/NRF24L01.c **** /**
  75:Core/Src/NRF24L01.c ****   * å‡½æ•°åŠŸèƒ½: è¯»å–SPIå¯„å­˜å™¨å€¼
  76:Core/Src/NRF24L01.c ****   * è¾“å…¥å‚æ•°: æ— 
ARM GAS  C:\Users\Kiana\AppData\Local\Temp\ccL5QKds.s 			page 5


  77:Core/Src/NRF24L01.c ****   * è¿” å› å€¼: æ— 
  78:Core/Src/NRF24L01.c ****   * è¯´    æ˜ï¼šreg:è¦è¯»çš„å¯„å­˜å™¨
  79:Core/Src/NRF24L01.c ****   *           
  80:Core/Src/NRF24L01.c ****   */ 
  81:Core/Src/NRF24L01.c **** uint8_t NRF24L01_Read_Reg(uint8_t reg)
  82:Core/Src/NRF24L01.c **** {
 158              		.loc 1 82 1 is_stmt 1 view -0
 159              		.cfi_startproc
 160              		@ args = 0, pretend = 0, frame = 0
 161              		@ frame_needed = 0, uses_anonymous_args = 0
 162              		.loc 1 82 1 is_stmt 0 view .LVU26
 163 0000 70B5     		push	{r4, r5, r6, lr}
 164              	.LCFI4:
 165              		.cfi_def_cfa_offset 16
 166              		.cfi_offset 4, -16
 167              		.cfi_offset 5, -12
 168              		.cfi_offset 6, -8
 169              		.cfi_offset 14, -4
 170 0002 0446     		mov	r4, r0
  83:Core/Src/NRF24L01.c **** 	uint8_t reg_val;	    
 171              		.loc 1 83 2 is_stmt 1 view .LVU27
  84:Core/Src/NRF24L01.c ****  	NRF24L01_SPI_CS_ENABLE();          //ä½¿èƒ½SPIä¼ è¾“		
 172              		.loc 1 84 3 view .LVU28
 173 0004 0C4D     		ldr	r5, .L10
 174 0006 0022     		movs	r2, #0
 175 0008 4FF48051 		mov	r1, #4096
 176 000c 2846     		mov	r0, r5
 177              	.LVL13:
 178              		.loc 1 84 3 is_stmt 0 view .LVU29
 179 000e FFF7FEFF 		bl	HAL_GPIO_WritePin
 180              	.LVL14:
  85:Core/Src/NRF24L01.c ****   SPIx_ReadWriteByte(&hspi_NRF24L01,reg);   //å‘é€å¯„å­˜å™¨å·
 181              		.loc 1 85 3 is_stmt 1 view .LVU30
 182 0012 0A4E     		ldr	r6, .L10+4
 183 0014 2146     		mov	r1, r4
 184 0016 3046     		mov	r0, r6
 185 0018 FFF7FEFF 		bl	SPIx_ReadWriteByte
 186              	.LVL15:
  86:Core/Src/NRF24L01.c ****   reg_val=SPIx_ReadWriteByte(&hspi_NRF24L01,0XFF);//è¯»å–å¯„å­˜å™¨å†…å®¹
 187              		.loc 1 86 3 view .LVU31
 188              		.loc 1 86 11 is_stmt 0 view .LVU32
 189 001c FF21     		movs	r1, #255
 190 001e 3046     		mov	r0, r6
 191 0020 FFF7FEFF 		bl	SPIx_ReadWriteByte
 192              	.LVL16:
 193 0024 0446     		mov	r4, r0
 194              	.LVL17:
  87:Core/Src/NRF24L01.c ****   NRF24L01_SPI_CS_DISABLE();          //ç¦æ­¢SPIä¼ è¾“		    
 195              		.loc 1 87 3 is_stmt 1 view .LVU33
 196 0026 0122     		movs	r2, #1
 197 0028 4FF48051 		mov	r1, #4096
 198 002c 2846     		mov	r0, r5
 199 002e FFF7FEFF 		bl	HAL_GPIO_WritePin
 200              	.LVL18:
  88:Core/Src/NRF24L01.c ****   return(reg_val);           //è¿”å›çŠ¶æ€å€¼
 201              		.loc 1 88 3 view .LVU34
  89:Core/Src/NRF24L01.c **** }	
ARM GAS  C:\Users\Kiana\AppData\Local\Temp\ccL5QKds.s 			page 6


 202              		.loc 1 89 1 is_stmt 0 view .LVU35
 203 0032 2046     		mov	r0, r4
 204 0034 70BD     		pop	{r4, r5, r6, pc}
 205              	.LVL19:
 206              	.L11:
 207              		.loc 1 89 1 view .LVU36
 208 0036 00BF     		.align	2
 209              	.L10:
 210 0038 00040240 		.word	1073873920
 211 003c 00000000 		.word	hspi2
 212              		.cfi_endproc
 213              	.LFE136:
 215              		.section	.text.NRF24L01_Read_Buf,"ax",%progbits
 216              		.align	1
 217              		.global	NRF24L01_Read_Buf
 218              		.syntax unified
 219              		.thumb
 220              		.thumb_func
 221              		.fpu fpv4-sp-d16
 223              	NRF24L01_Read_Buf:
 224              	.LVL20:
 225              	.LFB137:
  90:Core/Src/NRF24L01.c **** 
  91:Core/Src/NRF24L01.c **** /**
  92:Core/Src/NRF24L01.c ****   * å‡½æ•°åŠŸèƒ½: åœ¨æŒ‡å®šä½ç½®è¯»å‡ºæŒ‡å®šé•¿åº¦çš„æ•°æ®
  93:Core/Src/NRF24L01.c ****   * è¾“å…¥å‚æ•°: æ— 
  94:Core/Src/NRF24L01.c ****   * è¿” å› å€¼: æ­¤æ¬¡è¯»åˆ°çš„çŠ¶æ€å¯„å­˜å™¨å€¼ 
  95:Core/Src/NRF24L01.c ****   * è¯´    æ˜ï¼šæ— 
  96:Core/Src/NRF24L01.c ****   *           
  97:Core/Src/NRF24L01.c ****   */ 
  98:Core/Src/NRF24L01.c **** uint8_t NRF24L01_Read_Buf(uint8_t reg,uint8_t *pBuf,uint8_t len)
  99:Core/Src/NRF24L01.c **** {
 226              		.loc 1 99 1 is_stmt 1 view -0
 227              		.cfi_startproc
 228              		@ args = 0, pretend = 0, frame = 0
 229              		@ frame_needed = 0, uses_anonymous_args = 0
 230              		.loc 1 99 1 is_stmt 0 view .LVU38
 231 0000 F8B5     		push	{r3, r4, r5, r6, r7, lr}
 232              	.LCFI5:
 233              		.cfi_def_cfa_offset 24
 234              		.cfi_offset 3, -24
 235              		.cfi_offset 4, -20
 236              		.cfi_offset 5, -16
 237              		.cfi_offset 6, -12
 238              		.cfi_offset 7, -8
 239              		.cfi_offset 14, -4
 240 0002 0446     		mov	r4, r0
 241 0004 0E46     		mov	r6, r1
 242 0006 1546     		mov	r5, r2
 100:Core/Src/NRF24L01.c **** 	uint8_t status,uint8_t_ctr;	   
 243              		.loc 1 100 2 is_stmt 1 view .LVU39
 101:Core/Src/NRF24L01.c ****   
 102:Core/Src/NRF24L01.c ****   NRF24L01_SPI_CS_ENABLE();           //ä½¿èƒ½SPIä¼ è¾“
 244              		.loc 1 102 3 view .LVU40
 245 0008 0022     		movs	r2, #0
 246              	.LVL21:
 247              		.loc 1 102 3 is_stmt 0 view .LVU41
ARM GAS  C:\Users\Kiana\AppData\Local\Temp\ccL5QKds.s 			page 7


 248 000a 4FF48051 		mov	r1, #4096
 249              	.LVL22:
 250              		.loc 1 102 3 view .LVU42
 251 000e 0D48     		ldr	r0, .L17
 252              	.LVL23:
 253              		.loc 1 102 3 view .LVU43
 254 0010 FFF7FEFF 		bl	HAL_GPIO_WritePin
 255              	.LVL24:
 103:Core/Src/NRF24L01.c ****   status=SPIx_ReadWriteByte(&hspi_NRF24L01,reg);//å‘é€å¯„å­˜å™¨å€¼(ä½ç½®),å¹¶è¯»å–çŠ¶æ€å€¼   	
 256              		.loc 1 103 3 is_stmt 1 view .LVU44
 257              		.loc 1 103 10 is_stmt 0 view .LVU45
 258 0014 2146     		mov	r1, r4
 259 0016 0C48     		ldr	r0, .L17+4
 260 0018 FFF7FEFF 		bl	SPIx_ReadWriteByte
 261              	.LVL25:
 262 001c 0746     		mov	r7, r0
 263              	.LVL26:
 104:Core/Src/NRF24L01.c ****  	for(uint8_t_ctr=0;uint8_t_ctr<len;uint8_t_ctr++)
 264              		.loc 1 104 3 is_stmt 1 view .LVU46
 265              		.loc 1 104 18 is_stmt 0 view .LVU47
 266 001e 0024     		movs	r4, #0
 267              	.LVL27:
 268              	.L13:
 269              		.loc 1 104 21 is_stmt 1 discriminator 1 view .LVU48
 270              		.loc 1 104 3 is_stmt 0 discriminator 1 view .LVU49
 271 0020 AC42     		cmp	r4, r5
 272 0022 07D2     		bcs	.L16
 105:Core/Src/NRF24L01.c ****   {
 106:Core/Src/NRF24L01.c ****     pBuf[uint8_t_ctr]=SPIx_ReadWriteByte(&hspi_NRF24L01,0XFF);//è¯»å‡ºæ•°æ®
 273              		.loc 1 106 5 is_stmt 1 discriminator 3 view .LVU50
 274              		.loc 1 106 23 is_stmt 0 discriminator 3 view .LVU51
 275 0024 FF21     		movs	r1, #255
 276 0026 0848     		ldr	r0, .L17+4
 277 0028 FFF7FEFF 		bl	SPIx_ReadWriteByte
 278              	.LVL28:
 279              		.loc 1 106 22 discriminator 3 view .LVU52
 280 002c 3055     		strb	r0, [r6, r4]
 104:Core/Src/NRF24L01.c ****  	for(uint8_t_ctr=0;uint8_t_ctr<len;uint8_t_ctr++)
 281              		.loc 1 104 37 is_stmt 1 discriminator 3 view .LVU53
 104:Core/Src/NRF24L01.c ****  	for(uint8_t_ctr=0;uint8_t_ctr<len;uint8_t_ctr++)
 282              		.loc 1 104 48 is_stmt 0 discriminator 3 view .LVU54
 283 002e 0134     		adds	r4, r4, #1
 284              	.LVL29:
 104:Core/Src/NRF24L01.c ****  	for(uint8_t_ctr=0;uint8_t_ctr<len;uint8_t_ctr++)
 285              		.loc 1 104 48 discriminator 3 view .LVU55
 286 0030 E4B2     		uxtb	r4, r4
 287              	.LVL30:
 104:Core/Src/NRF24L01.c ****  	for(uint8_t_ctr=0;uint8_t_ctr<len;uint8_t_ctr++)
 288              		.loc 1 104 48 discriminator 3 view .LVU56
 289 0032 F5E7     		b	.L13
 290              	.L16:
 107:Core/Src/NRF24L01.c ****   }
 108:Core/Src/NRF24L01.c ****   NRF24L01_SPI_CS_DISABLE();       //å…³é—­SPIä¼ è¾“
 291              		.loc 1 108 3 is_stmt 1 view .LVU57
 292 0034 0122     		movs	r2, #1
 293 0036 4FF48051 		mov	r1, #4096
 294 003a 0248     		ldr	r0, .L17
ARM GAS  C:\Users\Kiana\AppData\Local\Temp\ccL5QKds.s 			page 8


 295 003c FFF7FEFF 		bl	HAL_GPIO_WritePin
 296              	.LVL31:
 109:Core/Src/NRF24L01.c ****   return status;        //è¿”å›è¯»åˆ°çš„çŠ¶æ€å€¼
 297              		.loc 1 109 3 view .LVU58
 110:Core/Src/NRF24L01.c **** }
 298              		.loc 1 110 1 is_stmt 0 view .LVU59
 299 0040 3846     		mov	r0, r7
 300 0042 F8BD     		pop	{r3, r4, r5, r6, r7, pc}
 301              	.LVL32:
 302              	.L18:
 303              		.loc 1 110 1 view .LVU60
 304              		.align	2
 305              	.L17:
 306 0044 00040240 		.word	1073873920
 307 0048 00000000 		.word	hspi2
 308              		.cfi_endproc
 309              	.LFE137:
 311              		.section	.text.NRF24L01_Write_Buf,"ax",%progbits
 312              		.align	1
 313              		.global	NRF24L01_Write_Buf
 314              		.syntax unified
 315              		.thumb
 316              		.thumb_func
 317              		.fpu fpv4-sp-d16
 319              	NRF24L01_Write_Buf:
 320              	.LVL33:
 321              	.LFB138:
 111:Core/Src/NRF24L01.c **** 
 112:Core/Src/NRF24L01.c **** /**
 113:Core/Src/NRF24L01.c ****   * å‡½æ•°åŠŸèƒ½: åœ¨æŒ‡å®šä½ç½®å†™æŒ‡å®šé•¿åº¦çš„æ•°æ®
 114:Core/Src/NRF24L01.c ****   * è¾“å…¥å‚æ•°: æ— 
 115:Core/Src/NRF24L01.c ****   * è¿” å› å€¼: æ— 
 116:Core/Src/NRF24L01.c ****   * è¯´    æ˜ï¼šreg:å¯„å­˜å™¨(ä½ç½®)  *pBuf:æ•°æ®æŒ‡é’ˆ  len:æ•°æ®é•¿åº¦
 117:Core/Src/NRF24L01.c ****   *           
 118:Core/Src/NRF24L01.c ****   */ 
 119:Core/Src/NRF24L01.c **** uint8_t NRF24L01_Write_Buf(uint8_t reg, uint8_t *pBuf, uint8_t len)
 120:Core/Src/NRF24L01.c **** {
 322              		.loc 1 120 1 is_stmt 1 view -0
 323              		.cfi_startproc
 324              		@ args = 0, pretend = 0, frame = 0
 325              		@ frame_needed = 0, uses_anonymous_args = 0
 326              		.loc 1 120 1 is_stmt 0 view .LVU62
 327 0000 F8B5     		push	{r3, r4, r5, r6, r7, lr}
 328              	.LCFI6:
 329              		.cfi_def_cfa_offset 24
 330              		.cfi_offset 3, -24
 331              		.cfi_offset 4, -20
 332              		.cfi_offset 5, -16
 333              		.cfi_offset 6, -12
 334              		.cfi_offset 7, -8
 335              		.cfi_offset 14, -4
 336 0002 0546     		mov	r5, r0
 337 0004 0C46     		mov	r4, r1
 338 0006 1646     		mov	r6, r2
 121:Core/Src/NRF24L01.c **** 	uint8_t status,uint8_t_ctr;	    
 339              		.loc 1 121 2 is_stmt 1 view .LVU63
 122:Core/Src/NRF24L01.c ****  	NRF24L01_SPI_CS_ENABLE();          //ä½¿èƒ½SPIä¼ è¾“
ARM GAS  C:\Users\Kiana\AppData\Local\Temp\ccL5QKds.s 			page 9


 340              		.loc 1 122 3 view .LVU64
 341 0008 0022     		movs	r2, #0
 342              	.LVL34:
 343              		.loc 1 122 3 is_stmt 0 view .LVU65
 344 000a 4FF48051 		mov	r1, #4096
 345              	.LVL35:
 346              		.loc 1 122 3 view .LVU66
 347 000e 0D48     		ldr	r0, .L24
 348              	.LVL36:
 349              		.loc 1 122 3 view .LVU67
 350 0010 FFF7FEFF 		bl	HAL_GPIO_WritePin
 351              	.LVL37:
 123:Core/Src/NRF24L01.c ****   status = SPIx_ReadWriteByte(&hspi_NRF24L01,reg);//å‘é€å¯„å­˜å™¨å€¼(ä½ç½®),å¹¶è¯»å–çŠ¶æ€å€¼
 352              		.loc 1 123 3 is_stmt 1 view .LVU68
 353              		.loc 1 123 12 is_stmt 0 view .LVU69
 354 0014 2946     		mov	r1, r5
 355 0016 0C48     		ldr	r0, .L24+4
 356 0018 FFF7FEFF 		bl	SPIx_ReadWriteByte
 357              	.LVL38:
 358 001c 0746     		mov	r7, r0
 359              	.LVL39:
 124:Core/Src/NRF24L01.c ****   for(uint8_t_ctr=0; uint8_t_ctr<len; uint8_t_ctr++)
 360              		.loc 1 124 3 is_stmt 1 view .LVU70
 361              		.loc 1 124 18 is_stmt 0 view .LVU71
 362 001e 0025     		movs	r5, #0
 363              	.LVL40:
 364              	.L20:
 365              		.loc 1 124 22 is_stmt 1 discriminator 1 view .LVU72
 366              		.loc 1 124 3 is_stmt 0 discriminator 1 view .LVU73
 367 0020 B542     		cmp	r5, r6
 368 0022 07D2     		bcs	.L23
 125:Core/Src/NRF24L01.c ****   {
 126:Core/Src/NRF24L01.c ****     SPIx_ReadWriteByte(&hspi_NRF24L01,*pBuf++); //å†™å…¥æ•°æ®	 
 369              		.loc 1 126 5 is_stmt 1 discriminator 3 view .LVU74
 370              	.LVL41:
 371              		.loc 1 126 5 is_stmt 0 discriminator 3 view .LVU75
 372 0024 14F8011B 		ldrb	r1, [r4], #1	@ zero_extendqisi2
 373              	.LVL42:
 374              		.loc 1 126 5 discriminator 3 view .LVU76
 375 0028 0748     		ldr	r0, .L24+4
 376 002a FFF7FEFF 		bl	SPIx_ReadWriteByte
 377              	.LVL43:
 124:Core/Src/NRF24L01.c ****   for(uint8_t_ctr=0; uint8_t_ctr<len; uint8_t_ctr++)
 378              		.loc 1 124 39 is_stmt 1 discriminator 3 view .LVU77
 124:Core/Src/NRF24L01.c ****   for(uint8_t_ctr=0; uint8_t_ctr<len; uint8_t_ctr++)
 379              		.loc 1 124 50 is_stmt 0 discriminator 3 view .LVU78
 380 002e 0135     		adds	r5, r5, #1
 381              	.LVL44:
 124:Core/Src/NRF24L01.c ****   for(uint8_t_ctr=0; uint8_t_ctr<len; uint8_t_ctr++)
 382              		.loc 1 124 50 discriminator 3 view .LVU79
 383 0030 EDB2     		uxtb	r5, r5
 384              	.LVL45:
 124:Core/Src/NRF24L01.c ****   for(uint8_t_ctr=0; uint8_t_ctr<len; uint8_t_ctr++)
 385              		.loc 1 124 50 discriminator 3 view .LVU80
 386 0032 F5E7     		b	.L20
 387              	.L23:
 127:Core/Src/NRF24L01.c ****   }
ARM GAS  C:\Users\Kiana\AppData\Local\Temp\ccL5QKds.s 			page 10


 128:Core/Src/NRF24L01.c ****   NRF24L01_SPI_CS_DISABLE();       //å…³é—­SPIä¼ è¾“
 388              		.loc 1 128 3 is_stmt 1 view .LVU81
 389 0034 0122     		movs	r2, #1
 390 0036 4FF48051 		mov	r1, #4096
 391 003a 0248     		ldr	r0, .L24
 392 003c FFF7FEFF 		bl	HAL_GPIO_WritePin
 393              	.LVL46:
 129:Core/Src/NRF24L01.c ****   return status;          //è¿”å›è¯»åˆ°çš„çŠ¶æ€å€¼
 394              		.loc 1 129 3 view .LVU82
 130:Core/Src/NRF24L01.c **** }				   
 395              		.loc 1 130 1 is_stmt 0 view .LVU83
 396 0040 3846     		mov	r0, r7
 397 0042 F8BD     		pop	{r3, r4, r5, r6, r7, pc}
 398              	.LVL47:
 399              	.L25:
 400              		.loc 1 130 1 view .LVU84
 401              		.align	2
 402              	.L24:
 403 0044 00040240 		.word	1073873920
 404 0048 00000000 		.word	hspi2
 405              		.cfi_endproc
 406              	.LFE138:
 408              		.section	.rodata.NRF24L01_Check.str1.4,"aMS",%progbits,1
 409              		.align	2
 410              	.LC0:
 411 0000 A5A5A5A5 		.ascii	"\245\245\245\245\245\000"
 411      A500
 412              		.section	.text.NRF24L01_Check,"ax",%progbits
 413              		.align	1
 414              		.global	NRF24L01_Check
 415              		.syntax unified
 416              		.thumb
 417              		.thumb_func
 418              		.fpu fpv4-sp-d16
 420              	NRF24L01_Check:
 421              	.LFB134:
  46:Core/Src/NRF24L01.c **** 	uint8_t buf[5]={0XA5,0XA5,0XA5,0XA5,0XA5};
 422              		.loc 1 46 1 is_stmt 1 view -0
 423              		.cfi_startproc
 424              		@ args = 0, pretend = 0, frame = 8
 425              		@ frame_needed = 0, uses_anonymous_args = 0
 426 0000 00B5     		push	{lr}
 427              	.LCFI7:
 428              		.cfi_def_cfa_offset 4
 429              		.cfi_offset 14, -4
 430 0002 83B0     		sub	sp, sp, #12
 431              	.LCFI8:
 432              		.cfi_def_cfa_offset 16
  47:Core/Src/NRF24L01.c **** 	uint8_t i;
 433              		.loc 1 47 2 view .LVU86
  47:Core/Src/NRF24L01.c **** 	uint8_t i;
 434              		.loc 1 47 10 is_stmt 0 view .LVU87
 435 0004 114B     		ldr	r3, .L33
 436 0006 93E80300 		ldm	r3, {r0, r1}
 437 000a 0090     		str	r0, [sp]
 438 000c 8DF80410 		strb	r1, [sp, #4]
  48:Core/Src/NRF24L01.c ****   
ARM GAS  C:\Users\Kiana\AppData\Local\Temp\ccL5QKds.s 			page 11


 439              		.loc 1 48 2 is_stmt 1 view .LVU88
  50:Core/Src/NRF24L01.c **** 	NRF24L01_Read_Buf(TX_ADDR,buf,5); //è¯»å‡ºå†™å…¥çš„åœ°å€  
 440              		.loc 1 50 2 view .LVU89
 441 0010 0522     		movs	r2, #5
 442 0012 6946     		mov	r1, sp
 443 0014 3020     		movs	r0, #48
 444 0016 FFF7FEFF 		bl	NRF24L01_Write_Buf
 445              	.LVL48:
  51:Core/Src/NRF24L01.c **** 	for(i=0;i<5;i++)if(buf[i]!=0XA5)break;	 							   
 446              		.loc 1 51 2 view .LVU90
 447 001a 0522     		movs	r2, #5
 448 001c 6946     		mov	r1, sp
 449 001e 1020     		movs	r0, #16
 450 0020 FFF7FEFF 		bl	NRF24L01_Read_Buf
 451              	.LVL49:
  52:Core/Src/NRF24L01.c **** 	if(i!=5)return 1;//æ£€æµ‹24L01é”™è¯¯	
 452              		.loc 1 52 2 view .LVU91
  52:Core/Src/NRF24L01.c **** 	if(i!=5)return 1;//æ£€æµ‹24L01é”™è¯¯	
 453              		.loc 1 52 7 is_stmt 0 view .LVU92
 454 0024 0023     		movs	r3, #0
 455              	.LVL50:
 456              	.L27:
  52:Core/Src/NRF24L01.c **** 	if(i!=5)return 1;//æ£€æµ‹24L01é”™è¯¯	
 457              		.loc 1 52 10 is_stmt 1 discriminator 3 view .LVU93
  52:Core/Src/NRF24L01.c **** 	if(i!=5)return 1;//æ£€æµ‹24L01é”™è¯¯	
 458              		.loc 1 52 2 is_stmt 0 discriminator 3 view .LVU94
 459 0026 042B     		cmp	r3, #4
 460 0028 08D8     		bhi	.L28
  52:Core/Src/NRF24L01.c **** 	if(i!=5)return 1;//æ£€æµ‹24L01é”™è¯¯	
 461              		.loc 1 52 18 is_stmt 1 discriminator 4 view .LVU95
  52:Core/Src/NRF24L01.c **** 	if(i!=5)return 1;//æ£€æµ‹24L01é”™è¯¯	
 462              		.loc 1 52 24 is_stmt 0 discriminator 4 view .LVU96
 463 002a 02AA     		add	r2, sp, #8
 464 002c 1A44     		add	r2, r2, r3
 465 002e 12F8082C 		ldrb	r2, [r2, #-8]	@ zero_extendqisi2
  52:Core/Src/NRF24L01.c **** 	if(i!=5)return 1;//æ£€æµ‹24L01é”™è¯¯	
 466              		.loc 1 52 20 discriminator 4 view .LVU97
 467 0032 A52A     		cmp	r2, #165
 468 0034 02D1     		bne	.L28
  52:Core/Src/NRF24L01.c **** 	if(i!=5)return 1;//æ£€æµ‹24L01é”™è¯¯	
 469              		.loc 1 52 14 is_stmt 1 discriminator 2 view .LVU98
  52:Core/Src/NRF24L01.c **** 	if(i!=5)return 1;//æ£€æµ‹24L01é”™è¯¯	
 470              		.loc 1 52 15 is_stmt 0 discriminator 2 view .LVU99
 471 0036 0133     		adds	r3, r3, #1
 472              	.LVL51:
  52:Core/Src/NRF24L01.c **** 	if(i!=5)return 1;//æ£€æµ‹24L01é”™è¯¯	
 473              		.loc 1 52 15 discriminator 2 view .LVU100
 474 0038 DBB2     		uxtb	r3, r3
 475              	.LVL52:
  52:Core/Src/NRF24L01.c **** 	if(i!=5)return 1;//æ£€æµ‹24L01é”™è¯¯	
 476              		.loc 1 52 15 discriminator 2 view .LVU101
 477 003a F4E7     		b	.L27
 478              	.L28:
  53:Core/Src/NRF24L01.c **** 	return 0;		 //æ£€æµ‹åˆ°24L01
 479              		.loc 1 53 2 is_stmt 1 view .LVU102
  53:Core/Src/NRF24L01.c **** 	return 0;		 //æ£€æµ‹åˆ°24L01
 480              		.loc 1 53 4 is_stmt 0 view .LVU103
ARM GAS  C:\Users\Kiana\AppData\Local\Temp\ccL5QKds.s 			page 12


 481 003c 052B     		cmp	r3, #5
 482 003e 03D1     		bne	.L31
  54:Core/Src/NRF24L01.c **** }	 	 
 483              		.loc 1 54 9 view .LVU104
 484 0040 0020     		movs	r0, #0
 485              	.L30:
  55:Core/Src/NRF24L01.c **** 
 486              		.loc 1 55 1 view .LVU105
 487 0042 03B0     		add	sp, sp, #12
 488              	.LCFI9:
 489              		.cfi_remember_state
 490              		.cfi_def_cfa_offset 4
 491              		@ sp needed
 492 0044 5DF804FB 		ldr	pc, [sp], #4
 493              	.L31:
 494              	.LCFI10:
 495              		.cfi_restore_state
  53:Core/Src/NRF24L01.c **** 	return 0;		 //æ£€æµ‹åˆ°24L01
 496              		.loc 1 53 17 view .LVU106
 497 0048 0120     		movs	r0, #1
 498 004a FAE7     		b	.L30
 499              	.L34:
 500              		.align	2
 501              	.L33:
 502 004c 00000000 		.word	.LC0
 503              		.cfi_endproc
 504              	.LFE134:
 506              		.section	.text.NRF24L01_TxPacket,"ax",%progbits
 507              		.align	1
 508              		.global	NRF24L01_TxPacket
 509              		.syntax unified
 510              		.thumb
 511              		.thumb_func
 512              		.fpu fpv4-sp-d16
 514              	NRF24L01_TxPacket:
 515              	.LVL53:
 516              	.LFB139:
 131:Core/Src/NRF24L01.c **** 
 132:Core/Src/NRF24L01.c **** /**
 133:Core/Src/NRF24L01.c ****   * å‡½æ•°åŠŸèƒ½: å¯åŠ¨NRF24L01å‘é€ä¸€æ¬¡æ•°æ®
 134:Core/Src/NRF24L01.c ****   * è¾“å…¥å‚æ•°: æ— 
 135:Core/Src/NRF24L01.c ****   * è¿” å› å€¼: å‘é€å®ŒæˆçŠ¶å†µ
 136:Core/Src/NRF24L01.c ****   * è¯´    æ˜ï¼štxbuf:å¾…å‘é€æ•°æ®é¦–åœ°å€
 137:Core/Src/NRF24L01.c ****   *           
 138:Core/Src/NRF24L01.c ****   */ 
 139:Core/Src/NRF24L01.c **** uint8_t NRF24L01_TxPacket(uint8_t *txbuf)
 140:Core/Src/NRF24L01.c **** {
 517              		.loc 1 140 1 is_stmt 1 view -0
 518              		.cfi_startproc
 519              		@ args = 0, pretend = 0, frame = 0
 520              		@ frame_needed = 0, uses_anonymous_args = 0
 521              		.loc 1 140 1 is_stmt 0 view .LVU108
 522 0000 38B5     		push	{r3, r4, r5, lr}
 523              	.LCFI11:
 524              		.cfi_def_cfa_offset 16
 525              		.cfi_offset 3, -16
 526              		.cfi_offset 4, -12
ARM GAS  C:\Users\Kiana\AppData\Local\Temp\ccL5QKds.s 			page 13


 527              		.cfi_offset 5, -8
 528              		.cfi_offset 14, -4
 529 0002 0446     		mov	r4, r0
 141:Core/Src/NRF24L01.c **** 	uint8_t sta;
 530              		.loc 1 141 2 is_stmt 1 view .LVU109
 142:Core/Src/NRF24L01.c **** 	NRF24L01_CE_LOW();
 531              		.loc 1 142 2 view .LVU110
 532 0004 184D     		ldr	r5, .L42
 533 0006 0022     		movs	r2, #0
 534 0008 4FF48061 		mov	r1, #1024
 535 000c 2846     		mov	r0, r5
 536              	.LVL54:
 537              		.loc 1 142 2 is_stmt 0 view .LVU111
 538 000e FFF7FEFF 		bl	HAL_GPIO_WritePin
 539              	.LVL55:
 143:Core/Src/NRF24L01.c ****   NRF24L01_Write_Buf(WR_TX_PLOAD,txbuf,TX_PLOAD_WIDTH);//å†™æ•°æ®åˆ°TX BUF  32ä¸ªå­—èŠ‚
 540              		.loc 1 143 3 is_stmt 1 view .LVU112
 541 0012 2022     		movs	r2, #32
 542 0014 2146     		mov	r1, r4
 543 0016 A020     		movs	r0, #160
 544 0018 FFF7FEFF 		bl	NRF24L01_Write_Buf
 545              	.LVL56:
 144:Core/Src/NRF24L01.c ****  	NRF24L01_CE_HIGH();                                  //å¯åŠ¨å‘é€	 
 546              		.loc 1 144 3 view .LVU113
 547 001c 0122     		movs	r2, #1
 548 001e 4FF48061 		mov	r1, #1024
 549 0022 2846     		mov	r0, r5
 550 0024 FFF7FEFF 		bl	HAL_GPIO_WritePin
 551              	.LVL57:
 145:Core/Src/NRF24L01.c ****   
 146:Core/Src/NRF24L01.c **** 	while(NRF24L01_IRQ_PIN_READ()!=0);                   //ç­‰å¾…å‘é€å®Œæˆ
 552              		.loc 1 146 2 view .LVU114
 553              	.L36:
 554              		.loc 1 146 35 discriminator 1 view .LVU115
 555              		.loc 1 146 7 discriminator 1 view .LVU116
 556              		.loc 1 146 8 is_stmt 0 discriminator 1 view .LVU117
 557 0028 4FF48071 		mov	r1, #256
 558 002c 0F48     		ldr	r0, .L42+4
 559 002e FFF7FEFF 		bl	HAL_GPIO_ReadPin
 560              	.LVL58:
 561              		.loc 1 146 7 discriminator 1 view .LVU118
 562 0032 0028     		cmp	r0, #0
 563 0034 F8D1     		bne	.L36
 147:Core/Src/NRF24L01.c **** 	sta=NRF24L01_Read_Reg(STATUS);                       //è¯»å–çŠ¶æ€å¯„å­˜å™¨çš„å€¼	   
 564              		.loc 1 147 2 is_stmt 1 view .LVU119
 565              		.loc 1 147 6 is_stmt 0 view .LVU120
 566 0036 0720     		movs	r0, #7
 567 0038 FFF7FEFF 		bl	NRF24L01_Read_Reg
 568              	.LVL59:
 569 003c 0446     		mov	r4, r0
 570              	.LVL60:
 148:Core/Src/NRF24L01.c **** 	NRF24L01_Write_Reg(NRF_WRITE_REG+STATUS,sta);        //æ¸…é™¤TX_DSæˆ–MAX_RTä¸­æ–­æ ‡å¿—
 571              		.loc 1 148 2 is_stmt 1 view .LVU121
 572 003e 0146     		mov	r1, r0
 573 0040 2720     		movs	r0, #39
 574              	.LVL61:
 575              		.loc 1 148 2 is_stmt 0 view .LVU122
ARM GAS  C:\Users\Kiana\AppData\Local\Temp\ccL5QKds.s 			page 14


 576 0042 FFF7FEFF 		bl	NRF24L01_Write_Reg
 577              	.LVL62:
 149:Core/Src/NRF24L01.c **** 	if(sta&MAX_TX)                                       //è¾¾åˆ°æœ€å¤§é‡å‘æ¬¡æ•°
 578              		.loc 1 149 2 is_stmt 1 view .LVU123
 579              		.loc 1 149 4 is_stmt 0 view .LVU124
 580 0046 14F0100F 		tst	r4, #16
 581 004a 04D1     		bne	.L41
 150:Core/Src/NRF24L01.c **** 	{
 151:Core/Src/NRF24L01.c **** 		NRF24L01_Write_Reg(FLUSH_TX,0xff);                 //æ¸…é™¤TX FIFOå¯„å­˜å™¨ 
 152:Core/Src/NRF24L01.c **** 		return MAX_TX; 
 153:Core/Src/NRF24L01.c **** 	}
 154:Core/Src/NRF24L01.c **** 	if(sta&TX_OK)                                        //å‘é€å®Œæˆ
 582              		.loc 1 154 2 is_stmt 1 view .LVU125
 583              		.loc 1 154 4 is_stmt 0 view .LVU126
 584 004c 14F0200F 		tst	r4, #32
 585 0050 07D1     		bne	.L39
 155:Core/Src/NRF24L01.c **** 	{
 156:Core/Src/NRF24L01.c **** 		return TX_OK;
 157:Core/Src/NRF24L01.c **** 	}
 158:Core/Src/NRF24L01.c **** 	return 0xff;                                         //å…¶ä»–åŸå› å‘é€å¤±è´¥
 586              		.loc 1 158 9 view .LVU127
 587 0052 FF20     		movs	r0, #255
 588              	.L38:
 159:Core/Src/NRF24L01.c **** }
 589              		.loc 1 159 1 view .LVU128
 590 0054 38BD     		pop	{r3, r4, r5, pc}
 591              	.L41:
 151:Core/Src/NRF24L01.c **** 		return MAX_TX; 
 592              		.loc 1 151 3 is_stmt 1 view .LVU129
 593 0056 FF21     		movs	r1, #255
 594 0058 E120     		movs	r0, #225
 595 005a FFF7FEFF 		bl	NRF24L01_Write_Reg
 596              	.LVL63:
 152:Core/Src/NRF24L01.c **** 	}
 597              		.loc 1 152 3 view .LVU130
 152:Core/Src/NRF24L01.c **** 	}
 598              		.loc 1 152 10 is_stmt 0 view .LVU131
 599 005e 1020     		movs	r0, #16
 600 0060 F8E7     		b	.L38
 601              	.L39:
 156:Core/Src/NRF24L01.c **** 	}
 602              		.loc 1 156 10 view .LVU132
 603 0062 2020     		movs	r0, #32
 604 0064 F6E7     		b	.L38
 605              	.L43:
 606 0066 00BF     		.align	2
 607              	.L42:
 608 0068 00040240 		.word	1073873920
 609 006c 00000240 		.word	1073872896
 610              		.cfi_endproc
 611              	.LFE139:
 613              		.section	.text.NRF24L01_RxPacket,"ax",%progbits
 614              		.align	1
 615              		.global	NRF24L01_RxPacket
 616              		.syntax unified
 617              		.thumb
 618              		.thumb_func
ARM GAS  C:\Users\Kiana\AppData\Local\Temp\ccL5QKds.s 			page 15


 619              		.fpu fpv4-sp-d16
 621              	NRF24L01_RxPacket:
 622              	.LVL64:
 623              	.LFB140:
 160:Core/Src/NRF24L01.c **** 
 161:Core/Src/NRF24L01.c **** /**
 162:Core/Src/NRF24L01.c ****   * å‡½æ•°åŠŸèƒ½:å¯åŠ¨NRF24L01æ¥æ”¶ä¸€æ¬¡æ•°æ®
 163:Core/Src/NRF24L01.c ****   * è¾“å…¥å‚æ•°: æ— 
 164:Core/Src/NRF24L01.c ****   * è¿” å› å€¼: æ— 
 165:Core/Src/NRF24L01.c ****   * è¯´    æ˜ï¼šæ— 
 166:Core/Src/NRF24L01.c ****   *           
 167:Core/Src/NRF24L01.c ****   */ 
 168:Core/Src/NRF24L01.c **** uint8_t NRF24L01_RxPacket(uint8_t *rxbuf)
 169:Core/Src/NRF24L01.c **** {
 624              		.loc 1 169 1 is_stmt 1 view -0
 625              		.cfi_startproc
 626              		@ args = 0, pretend = 0, frame = 0
 627              		@ frame_needed = 0, uses_anonymous_args = 0
 628              		.loc 1 169 1 is_stmt 0 view .LVU134
 629 0000 38B5     		push	{r3, r4, r5, lr}
 630              	.LCFI12:
 631              		.cfi_def_cfa_offset 16
 632              		.cfi_offset 3, -16
 633              		.cfi_offset 4, -12
 634              		.cfi_offset 5, -8
 635              		.cfi_offset 14, -4
 636 0002 0546     		mov	r5, r0
 170:Core/Src/NRF24L01.c **** 	uint8_t sta;		    							   
 637              		.loc 1 170 2 is_stmt 1 view .LVU135
 171:Core/Src/NRF24L01.c **** 	sta=NRF24L01_Read_Reg(STATUS);  //è¯»å–çŠ¶æ€å¯„å­˜å™¨çš„å€¼    	 
 638              		.loc 1 171 2 view .LVU136
 639              		.loc 1 171 6 is_stmt 0 view .LVU137
 640 0004 0720     		movs	r0, #7
 641              	.LVL65:
 642              		.loc 1 171 6 view .LVU138
 643 0006 FFF7FEFF 		bl	NRF24L01_Read_Reg
 644              	.LVL66:
 645 000a 0446     		mov	r4, r0
 646              	.LVL67:
 172:Core/Src/NRF24L01.c **** 	NRF24L01_Write_Reg(NRF_WRITE_REG+STATUS,sta); //æ¸…é™¤TX_DSæˆ–MAX_RTä¸­æ–­æ ‡å¿—
 647              		.loc 1 172 2 is_stmt 1 view .LVU139
 648 000c 0146     		mov	r1, r0
 649 000e 2720     		movs	r0, #39
 650              	.LVL68:
 651              		.loc 1 172 2 is_stmt 0 view .LVU140
 652 0010 FFF7FEFF 		bl	NRF24L01_Write_Reg
 653              	.LVL69:
 173:Core/Src/NRF24L01.c **** 	if(sta&RX_OK)//æ¥æ”¶åˆ°æ•°æ®
 654              		.loc 1 173 2 is_stmt 1 view .LVU141
 655              		.loc 1 173 4 is_stmt 0 view .LVU142
 656 0014 14F0400F 		tst	r4, #64
 657 0018 01D1     		bne	.L48
 174:Core/Src/NRF24L01.c **** 	{
 175:Core/Src/NRF24L01.c **** 		NRF24L01_Read_Buf(RD_RX_PLOAD,rxbuf,RX_PLOAD_WIDTH);//è¯»å–æ•°æ®
 176:Core/Src/NRF24L01.c **** 		NRF24L01_Write_Reg(FLUSH_RX,0xff);//æ¸…é™¤RX FIFOå¯„å­˜å™¨ 
 177:Core/Src/NRF24L01.c **** 		return 0; 
 178:Core/Src/NRF24L01.c **** 	}	
ARM GAS  C:\Users\Kiana\AppData\Local\Temp\ccL5QKds.s 			page 16


 179:Core/Src/NRF24L01.c **** 	return 1;//æ²¡æ”¶åˆ°ä»»ä½•æ•°æ®
 658              		.loc 1 179 9 view .LVU143
 659 001a 0120     		movs	r0, #1
 660              	.L45:
 180:Core/Src/NRF24L01.c **** }					    
 661              		.loc 1 180 1 view .LVU144
 662 001c 38BD     		pop	{r3, r4, r5, pc}
 663              	.LVL70:
 664              	.L48:
 175:Core/Src/NRF24L01.c **** 		NRF24L01_Write_Reg(FLUSH_RX,0xff);//æ¸…é™¤RX FIFOå¯„å­˜å™¨ 
 665              		.loc 1 175 3 is_stmt 1 view .LVU145
 666 001e 2022     		movs	r2, #32
 667 0020 2946     		mov	r1, r5
 668 0022 6120     		movs	r0, #97
 669 0024 FFF7FEFF 		bl	NRF24L01_Read_Buf
 670              	.LVL71:
 176:Core/Src/NRF24L01.c **** 		return 0; 
 671              		.loc 1 176 3 view .LVU146
 672 0028 FF21     		movs	r1, #255
 673 002a E220     		movs	r0, #226
 674 002c FFF7FEFF 		bl	NRF24L01_Write_Reg
 675              	.LVL72:
 177:Core/Src/NRF24L01.c **** 	}	
 676              		.loc 1 177 3 view .LVU147
 177:Core/Src/NRF24L01.c **** 	}	
 677              		.loc 1 177 10 is_stmt 0 view .LVU148
 678 0030 0020     		movs	r0, #0
 679 0032 F3E7     		b	.L45
 680              		.cfi_endproc
 681              	.LFE140:
 683              		.section	.text.NRF24L01_RX_Mode,"ax",%progbits
 684              		.align	1
 685              		.global	NRF24L01_RX_Mode
 686              		.syntax unified
 687              		.thumb
 688              		.thumb_func
 689              		.fpu fpv4-sp-d16
 691              	NRF24L01_RX_Mode:
 692              	.LVL73:
 693              	.LFB141:
 181:Core/Src/NRF24L01.c **** 
 182:Core/Src/NRF24L01.c **** /**
 183:Core/Src/NRF24L01.c ****   * å‡½æ•°åŠŸèƒ½: è¯¥å‡½æ•°åˆå§‹åŒ–NRF24L01åˆ°RXæ¨¡å¼
 184:Core/Src/NRF24L01.c ****   * è¾“å…¥å‚æ•°: æ— 
 185:Core/Src/NRF24L01.c ****   * è¿” å› å€¼: æ— 
 186:Core/Src/NRF24L01.c ****   * è¯´    æ˜ï¼šæ— 
 187:Core/Src/NRF24L01.c ****   *           
 188:Core/Src/NRF24L01.c ****   */ 
 189:Core/Src/NRF24L01.c **** void NRF24L01_RX_Mode(uint8_t i)
 190:Core/Src/NRF24L01.c **** {
 694              		.loc 1 190 1 is_stmt 1 view -0
 695              		.cfi_startproc
 696              		@ args = 0, pretend = 0, frame = 0
 697              		@ frame_needed = 0, uses_anonymous_args = 0
 698              		.loc 1 190 1 is_stmt 0 view .LVU150
 699 0000 10B5     		push	{r4, lr}
 700              	.LCFI13:
ARM GAS  C:\Users\Kiana\AppData\Local\Temp\ccL5QKds.s 			page 17


 701              		.cfi_def_cfa_offset 8
 702              		.cfi_offset 4, -8
 703              		.cfi_offset 14, -4
 704 0002 0446     		mov	r4, r0
 191:Core/Src/NRF24L01.c **** 	NRF24L01_CE_LOW();	  
 705              		.loc 1 191 2 is_stmt 1 view .LVU151
 706 0004 0022     		movs	r2, #0
 707 0006 4FF48061 		mov	r1, #1024
 708 000a 2448     		ldr	r0, .L58
 709              	.LVL74:
 710              		.loc 1 191 2 is_stmt 0 view .LVU152
 711 000c FFF7FEFF 		bl	HAL_GPIO_WritePin
 712              	.LVL75:
 192:Core/Src/NRF24L01.c ****   NRF24L01_Write_Reg(NRF_WRITE_REG+CONFIG, 0x0F);//é…ç½®åŸºæœ¬å·¥ä½œæ¨¡å¼çš„å‚æ•°;PWR_UP,EN_CRC,
 713              		.loc 1 192 3 is_stmt 1 view .LVU153
 714 0010 0F21     		movs	r1, #15
 715 0012 2020     		movs	r0, #32
 716 0014 FFF7FEFF 		bl	NRF24L01_Write_Reg
 717              	.LVL76:
 193:Core/Src/NRF24L01.c ****   NRF24L01_Write_Reg(NRF_WRITE_REG+EN_AA,0x01);    //ä½¿èƒ½é€šé“0çš„è‡ªåŠ¨åº”ç­”    
 718              		.loc 1 193 3 view .LVU154
 719 0018 0121     		movs	r1, #1
 720 001a 2120     		movs	r0, #33
 721 001c FFF7FEFF 		bl	NRF24L01_Write_Reg
 722              	.LVL77:
 194:Core/Src/NRF24L01.c ****   NRF24L01_Write_Reg(NRF_WRITE_REG+EN_RXADDR,0x01);//ä½¿èƒ½é€šé“0çš„æ¥æ”¶åœ°å€  	 
 723              		.loc 1 194 3 view .LVU155
 724 0020 0121     		movs	r1, #1
 725 0022 2220     		movs	r0, #34
 726 0024 FFF7FEFF 		bl	NRF24L01_Write_Reg
 727              	.LVL78:
 195:Core/Src/NRF24L01.c ****   NRF24L01_Write_Reg(NRF_WRITE_REG+RF_CH,40);	     //è®¾ç½®RFé€šä¿¡é¢‘ç‡		  
 728              		.loc 1 195 3 view .LVU156
 729 0028 2821     		movs	r1, #40
 730 002a 2520     		movs	r0, #37
 731 002c FFF7FEFF 		bl	NRF24L01_Write_Reg
 732              	.LVL79:
 196:Core/Src/NRF24L01.c ****   NRF24L01_Write_Reg(NRF_WRITE_REG+RF_SETUP,0x0f);//è®¾ç½®TXå‘å°„å‚æ•°,0dbå¢ç›Š,2Mbps,ä½å™ªå£°å
 733              		.loc 1 196 3 view .LVU157
 734 0030 0F21     		movs	r1, #15
 735 0032 2620     		movs	r0, #38
 736 0034 FFF7FEFF 		bl	NRF24L01_Write_Reg
 737              	.LVL80:
 197:Core/Src/NRF24L01.c ****   
 198:Core/Src/NRF24L01.c ****   NRF24L01_Write_Reg(NRF_WRITE_REG+RX_PW_P0,RX_PLOAD_WIDTH);//é€‰æ‹©é€šé“0çš„æœ‰æ•ˆæ•°æ®å®½åº¦ 	 
 738              		.loc 1 198 3 view .LVU158
 739 0038 2021     		movs	r1, #32
 740 003a 3120     		movs	r0, #49
 741 003c FFF7FEFF 		bl	NRF24L01_Write_Reg
 742              	.LVL81:
 199:Core/Src/NRF24L01.c **** 
 200:Core/Src/NRF24L01.c ****   switch (i)
 743              		.loc 1 200 3 view .LVU159
 744 0040 032C     		cmp	r4, #3
 745 0042 24D8     		bhi	.L50
 746 0044 DFE804F0 		tbb	[pc, r4]
 747              	.L52:
ARM GAS  C:\Users\Kiana\AppData\Local\Temp\ccL5QKds.s 			page 18


 748 0048 02       		.byte	(.L55-.L52)/2
 749 0049 11       		.byte	(.L54-.L52)/2
 750 004a 17       		.byte	(.L53-.L52)/2
 751 004b 1D       		.byte	(.L51-.L52)/2
 752              		.p2align 1
 753              	.L55:
 201:Core/Src/NRF24L01.c ****   {
 202:Core/Src/NRF24L01.c ****   case 0:
 203:Core/Src/NRF24L01.c ****     NRF24L01_Write_Buf(NRF_WRITE_REG+RX_ADDR_P0,(uint8_t*)RX_ADDRESS0,RX_ADR_WIDTH);//å†™RXèŠ‚ç‚¹åœ
 754              		.loc 1 203 5 view .LVU160
 755 004c 0522     		movs	r2, #5
 756 004e 1449     		ldr	r1, .L58+4
 757 0050 2A20     		movs	r0, #42
 758 0052 FFF7FEFF 		bl	NRF24L01_Write_Buf
 759              	.LVL82:
 204:Core/Src/NRF24L01.c ****     break;
 760              		.loc 1 204 5 view .LVU161
 761              	.L56:
 205:Core/Src/NRF24L01.c ****   case 1:
 206:Core/Src/NRF24L01.c ****     NRF24L01_Write_Buf(NRF_WRITE_REG+RX_ADDR_P0,(uint8_t*)RX_ADDRESS1,RX_ADR_WIDTH);//å†™RXèŠ‚ç‚¹åœ
 207:Core/Src/NRF24L01.c ****     break;
 208:Core/Src/NRF24L01.c ****   case 2:
 209:Core/Src/NRF24L01.c ****     NRF24L01_Write_Buf(NRF_WRITE_REG+RX_ADDR_P0,(uint8_t*)RX_ADDRESS2,RX_ADR_WIDTH);//å†™RXèŠ‚ç‚¹åœ
 210:Core/Src/NRF24L01.c ****     break;
 211:Core/Src/NRF24L01.c ****   case 3:
 212:Core/Src/NRF24L01.c ****     NRF24L01_Write_Buf(NRF_WRITE_REG+RX_ADDR_P0,(uint8_t*)RX_ADDRESS3,RX_ADR_WIDTH);//å†™RXèŠ‚ç‚¹åœ
 213:Core/Src/NRF24L01.c ****     break;
 214:Core/Src/NRF24L01.c ****   default:
 215:Core/Src/NRF24L01.c ****     NRF24L01_Write_Buf(NRF_WRITE_REG+RX_ADDR_P0,(uint8_t*)RX_ADDRESS0,RX_ADR_WIDTH);//å†™RXèŠ‚ç‚¹åœ
 216:Core/Src/NRF24L01.c ****     break;
 217:Core/Src/NRF24L01.c ****   }  
 218:Core/Src/NRF24L01.c **** 	
 219:Core/Src/NRF24L01.c ****   NRF24L01_CE_HIGH(); //CEä¸ºé«˜,è¿›å…¥æ¥æ”¶æ¨¡å¼ 
 762              		.loc 1 219 3 view .LVU162
 763 0056 0122     		movs	r2, #1
 764 0058 4FF48061 		mov	r1, #1024
 765 005c 0F48     		ldr	r0, .L58
 766 005e FFF7FEFF 		bl	HAL_GPIO_WritePin
 767              	.LVL83:
 220:Core/Src/NRF24L01.c ****   HAL_Delay(1);
 768              		.loc 1 220 3 view .LVU163
 769 0062 0120     		movs	r0, #1
 770 0064 FFF7FEFF 		bl	HAL_Delay
 771              	.LVL84:
 221:Core/Src/NRF24L01.c **** }						 
 772              		.loc 1 221 1 is_stmt 0 view .LVU164
 773 0068 10BD     		pop	{r4, pc}
 774              	.L54:
 206:Core/Src/NRF24L01.c ****     break;
 775              		.loc 1 206 5 is_stmt 1 view .LVU165
 776 006a 0522     		movs	r2, #5
 777 006c 0D49     		ldr	r1, .L58+8
 778 006e 2A20     		movs	r0, #42
 779 0070 FFF7FEFF 		bl	NRF24L01_Write_Buf
 780              	.LVL85:
 207:Core/Src/NRF24L01.c ****   case 2:
 781              		.loc 1 207 5 view .LVU166
ARM GAS  C:\Users\Kiana\AppData\Local\Temp\ccL5QKds.s 			page 19


 782 0074 EFE7     		b	.L56
 783              	.L53:
 209:Core/Src/NRF24L01.c ****     break;
 784              		.loc 1 209 5 view .LVU167
 785 0076 0522     		movs	r2, #5
 786 0078 0B49     		ldr	r1, .L58+12
 787 007a 2A20     		movs	r0, #42
 788 007c FFF7FEFF 		bl	NRF24L01_Write_Buf
 789              	.LVL86:
 210:Core/Src/NRF24L01.c ****   case 3:
 790              		.loc 1 210 5 view .LVU168
 791 0080 E9E7     		b	.L56
 792              	.L51:
 212:Core/Src/NRF24L01.c ****     break;
 793              		.loc 1 212 5 view .LVU169
 794 0082 0522     		movs	r2, #5
 795 0084 0949     		ldr	r1, .L58+16
 796 0086 2A20     		movs	r0, #42
 797 0088 FFF7FEFF 		bl	NRF24L01_Write_Buf
 798              	.LVL87:
 213:Core/Src/NRF24L01.c ****   default:
 799              		.loc 1 213 5 view .LVU170
 800 008c E3E7     		b	.L56
 801              	.L50:
 215:Core/Src/NRF24L01.c ****     break;
 802              		.loc 1 215 5 view .LVU171
 803 008e 0522     		movs	r2, #5
 804 0090 0349     		ldr	r1, .L58+4
 805 0092 2A20     		movs	r0, #42
 806 0094 FFF7FEFF 		bl	NRF24L01_Write_Buf
 807              	.LVL88:
 216:Core/Src/NRF24L01.c ****   }  
 808              		.loc 1 216 5 view .LVU172
 809 0098 DDE7     		b	.L56
 810              	.L59:
 811 009a 00BF     		.align	2
 812              	.L58:
 813 009c 00040240 		.word	1073873920
 814 00a0 00000000 		.word	.LANCHOR0
 815 00a4 00000000 		.word	.LANCHOR1
 816 00a8 00000000 		.word	.LANCHOR2
 817 00ac 00000000 		.word	.LANCHOR3
 818              		.cfi_endproc
 819              	.LFE141:
 821              		.section	.text.NRF24L01_TX_Mode,"ax",%progbits
 822              		.align	1
 823              		.global	NRF24L01_TX_Mode
 824              		.syntax unified
 825              		.thumb
 826              		.thumb_func
 827              		.fpu fpv4-sp-d16
 829              	NRF24L01_TX_Mode:
 830              	.LVL89:
 831              	.LFB142:
 222:Core/Src/NRF24L01.c **** 
 223:Core/Src/NRF24L01.c **** /**
 224:Core/Src/NRF24L01.c ****   * å‡½æ•°åŠŸèƒ½: è¯¥å‡½æ•°åˆå§‹åŒ–NRF24L01åˆ°TXæ¨¡å¼
ARM GAS  C:\Users\Kiana\AppData\Local\Temp\ccL5QKds.s 			page 20


 225:Core/Src/NRF24L01.c ****   * è¾“å…¥å‚æ•°: æ— 
 226:Core/Src/NRF24L01.c ****   * è¿” å› å€¼: æ— 
 227:Core/Src/NRF24L01.c ****   * è¯´    æ˜ï¼šæ— 
 228:Core/Src/NRF24L01.c ****   *           
 229:Core/Src/NRF24L01.c ****   */ 
 230:Core/Src/NRF24L01.c **** void NRF24L01_TX_Mode(uint8_t i)
 231:Core/Src/NRF24L01.c **** {														 
 832              		.loc 1 231 1 view -0
 833              		.cfi_startproc
 834              		@ args = 0, pretend = 0, frame = 0
 835              		@ frame_needed = 0, uses_anonymous_args = 0
 836              		.loc 1 231 1 is_stmt 0 view .LVU174
 837 0000 10B5     		push	{r4, lr}
 838              	.LCFI14:
 839              		.cfi_def_cfa_offset 8
 840              		.cfi_offset 4, -8
 841              		.cfi_offset 14, -4
 842 0002 0446     		mov	r4, r0
 232:Core/Src/NRF24L01.c **** 	NRF24L01_CE_LOW();
 843              		.loc 1 232 2 is_stmt 1 view .LVU175
 844 0004 0022     		movs	r2, #0
 845 0006 4FF48061 		mov	r1, #1024
 846 000a 2648     		ldr	r0, .L69
 847              	.LVL90:
 848              		.loc 1 232 2 is_stmt 0 view .LVU176
 849 000c FFF7FEFF 		bl	HAL_GPIO_WritePin
 850              	.LVL91:
 233:Core/Src/NRF24L01.c ****   switch (i)
 851              		.loc 1 233 3 is_stmt 1 view .LVU177
 852 0010 032C     		cmp	r4, #3
 853 0012 41D8     		bhi	.L61
 854 0014 DFE804F0 		tbb	[pc, r4]
 855              	.L63:
 856 0018 02       		.byte	(.L66-.L63)/2
 857 0019 2E       		.byte	(.L65-.L63)/2
 858 001a 34       		.byte	(.L64-.L63)/2
 859 001b 3A       		.byte	(.L62-.L63)/2
 860              		.p2align 1
 861              	.L66:
 234:Core/Src/NRF24L01.c ****   {
 235:Core/Src/NRF24L01.c ****   case 0:
 236:Core/Src/NRF24L01.c ****     NRF24L01_Write_Buf(NRF_WRITE_REG+TX_ADDR,(uint8_t*)TX_ADDRESS0,TX_ADR_WIDTH);//å†™TXèŠ‚ç‚¹åœ°å
 862              		.loc 1 236 5 view .LVU178
 863 001c 0522     		movs	r2, #5
 864 001e 2249     		ldr	r1, .L69+4
 865 0020 3020     		movs	r0, #48
 866 0022 FFF7FEFF 		bl	NRF24L01_Write_Buf
 867              	.LVL92:
 237:Core/Src/NRF24L01.c ****     break;
 868              		.loc 1 237 5 view .LVU179
 869              	.L67:
 238:Core/Src/NRF24L01.c ****   case 1:
 239:Core/Src/NRF24L01.c ****     NRF24L01_Write_Buf(NRF_WRITE_REG+TX_ADDR,(uint8_t*)TX_ADDRESS1,TX_ADR_WIDTH);//å†™TXèŠ‚ç‚¹åœ°å
 240:Core/Src/NRF24L01.c ****     break;
 241:Core/Src/NRF24L01.c ****   case 2:
 242:Core/Src/NRF24L01.c ****     NRF24L01_Write_Buf(NRF_WRITE_REG+TX_ADDR,(uint8_t*)TX_ADDRESS2,TX_ADR_WIDTH);//å†™TXèŠ‚ç‚¹åœ°å
 243:Core/Src/NRF24L01.c ****     break;
ARM GAS  C:\Users\Kiana\AppData\Local\Temp\ccL5QKds.s 			page 21


 244:Core/Src/NRF24L01.c ****   case 3:
 245:Core/Src/NRF24L01.c ****       NRF24L01_Write_Buf(NRF_WRITE_REG+TX_ADDR,(uint8_t*)TX_ADDRESS3,TX_ADR_WIDTH);//å†™TXèŠ‚ç‚¹åœ°
 246:Core/Src/NRF24L01.c ****       break;
 247:Core/Src/NRF24L01.c ****   default:
 248:Core/Src/NRF24L01.c ****     NRF24L01_Write_Buf(NRF_WRITE_REG+TX_ADDR,(uint8_t*)TX_ADDRESS0,TX_ADR_WIDTH);//å†™TXèŠ‚ç‚¹åœ°å
 249:Core/Src/NRF24L01.c ****     break;
 250:Core/Src/NRF24L01.c ****   }	    
 251:Core/Src/NRF24L01.c **** 
 252:Core/Src/NRF24L01.c ****   NRF24L01_Write_Buf(NRF_WRITE_REG+RX_ADDR_P0,(uint8_t*)RX_ADDRESS0,RX_ADR_WIDTH); //è®¾ç½®TXèŠ‚ç‚¹
 870              		.loc 1 252 3 view .LVU180
 871 0026 0522     		movs	r2, #5
 872 0028 2049     		ldr	r1, .L69+8
 873 002a 2A20     		movs	r0, #42
 874 002c FFF7FEFF 		bl	NRF24L01_Write_Buf
 875              	.LVL93:
 253:Core/Src/NRF24L01.c **** 
 254:Core/Src/NRF24L01.c ****   NRF24L01_Write_Reg(NRF_WRITE_REG+EN_AA,0x3f);     //ä½¿èƒ½é€šé“0çš„è‡ªåŠ¨åº”ç­”    
 876              		.loc 1 254 3 view .LVU181
 877 0030 3F21     		movs	r1, #63
 878 0032 2120     		movs	r0, #33
 879 0034 FFF7FEFF 		bl	NRF24L01_Write_Reg
 880              	.LVL94:
 255:Core/Src/NRF24L01.c ****   NRF24L01_Write_Reg(NRF_WRITE_REG+EN_RXADDR,0x3f); //ä½¿èƒ½é€šé“0çš„æ¥æ”¶åœ°å€  
 881              		.loc 1 255 3 view .LVU182
 882 0038 3F21     		movs	r1, #63
 883 003a 2220     		movs	r0, #34
 884 003c FFF7FEFF 		bl	NRF24L01_Write_Reg
 885              	.LVL95:
 256:Core/Src/NRF24L01.c ****   NRF24L01_Write_Reg(NRF_WRITE_REG+SETUP_RETR,0xff);//è®¾ç½®è‡ªåŠ¨é‡å‘é—´éš”æ—¶é—´:4000us + 86us;
 886              		.loc 1 256 3 view .LVU183
 887 0040 FF21     		movs	r1, #255
 888 0042 2420     		movs	r0, #36
 889 0044 FFF7FEFF 		bl	NRF24L01_Write_Reg
 890              	.LVL96:
 257:Core/Src/NRF24L01.c ****   NRF24L01_Write_Reg(NRF_WRITE_REG+RF_CH,40);       //è®¾ç½®RFé€šé“ä¸º40
 891              		.loc 1 257 3 view .LVU184
 892 0048 2821     		movs	r1, #40
 893 004a 2520     		movs	r0, #37
 894 004c FFF7FEFF 		bl	NRF24L01_Write_Reg
 895              	.LVL97:
 258:Core/Src/NRF24L01.c ****   NRF24L01_Write_Reg(NRF_WRITE_REG+RF_SETUP,0x0f);  //è®¾ç½®TXå‘å°„å‚æ•°,0dbå¢ç›Š,2Mbps,ä½å™ªå£
 896              		.loc 1 258 3 view .LVU185
 897 0050 0F21     		movs	r1, #15
 898 0052 2620     		movs	r0, #38
 899 0054 FFF7FEFF 		bl	NRF24L01_Write_Reg
 900              	.LVL98:
 259:Core/Src/NRF24L01.c ****   NRF24L01_Write_Reg(NRF_WRITE_REG+CONFIG,0x0e);    //é…ç½®åŸºæœ¬å·¥ä½œæ¨¡å¼çš„å‚æ•°;PWR_UP,EN_C
 901              		.loc 1 259 3 view .LVU186
 902 0058 0E21     		movs	r1, #14
 903 005a 2020     		movs	r0, #32
 904 005c FFF7FEFF 		bl	NRF24L01_Write_Reg
 905              	.LVL99:
 260:Core/Src/NRF24L01.c **** 	NRF24L01_CE_HIGH();//CEä¸ºé«˜,10usåå¯åŠ¨å‘é€
 906              		.loc 1 260 2 view .LVU187
 907 0060 0122     		movs	r2, #1
 908 0062 4FF48061 		mov	r1, #1024
 909 0066 0F48     		ldr	r0, .L69
ARM GAS  C:\Users\Kiana\AppData\Local\Temp\ccL5QKds.s 			page 22


 910 0068 FFF7FEFF 		bl	HAL_GPIO_WritePin
 911              	.LVL100:
 261:Core/Src/NRF24L01.c ****   HAL_Delay(1);
 912              		.loc 1 261 3 view .LVU188
 913 006c 0120     		movs	r0, #1
 914 006e FFF7FEFF 		bl	HAL_Delay
 915              	.LVL101:
 262:Core/Src/NRF24L01.c **** }
 916              		.loc 1 262 1 is_stmt 0 view .LVU189
 917 0072 10BD     		pop	{r4, pc}
 918              	.L65:
 239:Core/Src/NRF24L01.c ****     break;
 919              		.loc 1 239 5 is_stmt 1 view .LVU190
 920 0074 0522     		movs	r2, #5
 921 0076 0E49     		ldr	r1, .L69+12
 922 0078 3020     		movs	r0, #48
 923 007a FFF7FEFF 		bl	NRF24L01_Write_Buf
 924              	.LVL102:
 240:Core/Src/NRF24L01.c ****   case 2:
 925              		.loc 1 240 5 view .LVU191
 926 007e D2E7     		b	.L67
 927              	.L64:
 242:Core/Src/NRF24L01.c ****     break;
 928              		.loc 1 242 5 view .LVU192
 929 0080 0522     		movs	r2, #5
 930 0082 0C49     		ldr	r1, .L69+16
 931 0084 3020     		movs	r0, #48
 932 0086 FFF7FEFF 		bl	NRF24L01_Write_Buf
 933              	.LVL103:
 243:Core/Src/NRF24L01.c ****   case 3:
 934              		.loc 1 243 5 view .LVU193
 935 008a CCE7     		b	.L67
 936              	.L62:
 245:Core/Src/NRF24L01.c ****       break;
 937              		.loc 1 245 7 view .LVU194
 938 008c 0522     		movs	r2, #5
 939 008e 0A49     		ldr	r1, .L69+20
 940 0090 3020     		movs	r0, #48
 941 0092 FFF7FEFF 		bl	NRF24L01_Write_Buf
 942              	.LVL104:
 246:Core/Src/NRF24L01.c ****   default:
 943              		.loc 1 246 7 view .LVU195
 944 0096 C6E7     		b	.L67
 945              	.L61:
 248:Core/Src/NRF24L01.c ****     break;
 946              		.loc 1 248 5 view .LVU196
 947 0098 0522     		movs	r2, #5
 948 009a 0349     		ldr	r1, .L69+4
 949 009c 3020     		movs	r0, #48
 950 009e FFF7FEFF 		bl	NRF24L01_Write_Buf
 951              	.LVL105:
 249:Core/Src/NRF24L01.c ****   }	    
 952              		.loc 1 249 5 view .LVU197
 953 00a2 C0E7     		b	.L67
 954              	.L70:
 955              		.align	2
 956              	.L69:
ARM GAS  C:\Users\Kiana\AppData\Local\Temp\ccL5QKds.s 			page 23


 957 00a4 00040240 		.word	1073873920
 958 00a8 00000000 		.word	.LANCHOR4
 959 00ac 00000000 		.word	.LANCHOR0
 960 00b0 00000000 		.word	.LANCHOR5
 961 00b4 00000000 		.word	.LANCHOR6
 962 00b8 00000000 		.word	.LANCHOR7
 963              		.cfi_endproc
 964              	.LFE142:
 966              		.global	RX_ADDRESS3
 967              		.global	RX_ADDRESS2
 968              		.global	RX_ADDRESS1
 969              		.global	RX_ADDRESS0
 970              		.global	TX_ADDRESS3
 971              		.global	TX_ADDRESS2
 972              		.global	TX_ADDRESS1
 973              		.global	TX_ADDRESS0
 974              		.section	.rodata.RX_ADDRESS0,"a"
 975              		.align	2
 976              		.set	.LANCHOR0,. + 0
 979              	RX_ADDRESS0:
 980 0000 B0431010 		.ascii	"\260C\020\020\001"
 980      01
 981              		.section	.rodata.RX_ADDRESS1,"a"
 982              		.align	2
 983              		.set	.LANCHOR1,. + 0
 986              	RX_ADDRESS1:
 987 0000 B1431010 		.ascii	"\261C\020\020\002"
 987      02
 988              		.section	.rodata.RX_ADDRESS2,"a"
 989              		.align	2
 990              		.set	.LANCHOR2,. + 0
 993              	RX_ADDRESS2:
 994 0000 B2431010 		.ascii	"\262C\020\020\002"
 994      02
 995              		.section	.rodata.RX_ADDRESS3,"a"
 996              		.align	2
 997              		.set	.LANCHOR3,. + 0
 1000              	RX_ADDRESS3:
 1001 0000 B3431010 		.ascii	"\263C\020\020\002"
 1001      02
 1002              		.section	.rodata.TX_ADDRESS0,"a"
 1003              		.align	2
 1004              		.set	.LANCHOR4,. + 0
 1007              	TX_ADDRESS0:
 1008 0000 B0431010 		.ascii	"\260C\020\020\001"
 1008      01
 1009              		.section	.rodata.TX_ADDRESS1,"a"
 1010              		.align	2
 1011              		.set	.LANCHOR5,. + 0
 1014              	TX_ADDRESS1:
 1015 0000 B1431010 		.ascii	"\261C\020\020\002"
 1015      02
 1016              		.section	.rodata.TX_ADDRESS2,"a"
 1017              		.align	2
 1018              		.set	.LANCHOR6,. + 0
 1021              	TX_ADDRESS2:
 1022 0000 B2431010 		.ascii	"\262C\020\020\002"
ARM GAS  C:\Users\Kiana\AppData\Local\Temp\ccL5QKds.s 			page 24


 1022      02
 1023              		.section	.rodata.TX_ADDRESS3,"a"
 1024              		.align	2
 1025              		.set	.LANCHOR7,. + 0
 1028              	TX_ADDRESS3:
 1029 0000 B3431010 		.ascii	"\263C\020\020\002"
 1029      02
 1030              		.text
 1031              	.Letext0:
 1032              		.file 2 "d:\\vs_code_stm32\\9 2019-q4-major\\arm-none-eabi\\include\\machine\\_default_types.h"
 1033              		.file 3 "d:\\vs_code_stm32\\9 2019-q4-major\\arm-none-eabi\\include\\sys\\_stdint.h"
 1034              		.file 4 "Drivers/CMSIS/Include/core_cm4.h"
 1035              		.file 5 "Drivers/CMSIS/Device/ST/STM32F4xx/Include/system_stm32f4xx.h"
 1036              		.file 6 "Drivers/CMSIS/Device/ST/STM32F4xx/Include/stm32f401xc.h"
 1037              		.file 7 "Drivers/STM32F4xx_HAL_Driver/Inc/stm32f4xx_hal_def.h"
 1038              		.file 8 "Drivers/STM32F4xx_HAL_Driver/Inc/stm32f4xx_hal_gpio.h"
 1039              		.file 9 "Drivers/STM32F4xx_HAL_Driver/Inc/stm32f4xx_hal_dma.h"
 1040              		.file 10 "Drivers/STM32F4xx_HAL_Driver/Inc/stm32f4xx_hal_spi.h"
 1041              		.file 11 "Drivers/STM32F4xx_HAL_Driver/Inc/stm32f4xx_hal_uart.h"
 1042              		.file 12 "Drivers/STM32F4xx_HAL_Driver/Inc/stm32f4xx_hal.h"
 1043              		.file 13 "Core/Inc/usart.h"
 1044              		.file 14 "d:\\vs_code_stm32\\9 2019-q4-major\\arm-none-eabi\\include\\sys\\lock.h"
 1045              		.file 15 "d:\\vs_code_stm32\\9 2019-q4-major\\arm-none-eabi\\include\\sys\\_types.h"
 1046              		.file 16 "d:\\vs_code_stm32\\9 2019-q4-major\\lib\\gcc\\arm-none-eabi\\9.2.1\\include\\stddef.h"
 1047              		.file 17 "d:\\vs_code_stm32\\9 2019-q4-major\\arm-none-eabi\\include\\sys\\reent.h"
 1048              		.file 18 "Core/Inc/NRF24L01.h"
ARM GAS  C:\Users\Kiana\AppData\Local\Temp\ccL5QKds.s 			page 25

